  ExifToolVersion = 10.87
  FileName = canon_eos_m50_10.cr3
  Directory = .
  FileSize = 34562951
  FileModifyDate = 1521636173
  FileAccessDate = 1521636157
  FileType = CR3
  FileTypeExtension = CR3
  MIMEType = image/x-canon-cr3
  FileType (SubDirectory) -->
  - Tag 'ftyp' (16 bytes):
      0008: 63 72 78 20 00 00 00 01 63 72 78 20 69 73 6f 6d [crx ....crx isom]
  + [BinaryData directory, 16 bytes]
  | MajorBrand = crx 
  | - Tag 0x0000 (4 bytes, undef[4]):
  |     0008: 63 72 78 20                                     [crx ]
  | MinorVersion = .
  | - Tag 0x0001 (4 bytes, undef[4]):
  |     000c: 00 00 00 01                                     [....]
  | CompatibleBrands = crx isom
  | - Tag 0x0002 (8 bytes, undef[8]):
  |     0010: 63 72 78 20 69 73 6f 6d                         [crx isom]
  Movie (SubDirectory) -->
  - Tag 'moov' (24352 bytes):
      0020: 00 00 56 78 75 75 69 64 85 c0 b6 87 82 0f 11 e0 [..Vxuuid........]
      0030: 81 11 f4 ce 46 2b 6a 48 00 00 00 26 43 4e 43 56 [....F+jH...&CNCV]
      0040: 43 61 6e 6f 6e 43 52 33 5f 30 30 31 2f 30 30 2e [CanonCR3_001/00.]
      0050: 30 39 2e 30 30 2f 30 30 2e 30 30 2e 30 30 00 00 [09.00/00.00.00..]
      0060: 00 5c 43 43 54 50 00 00 00 00 00 00 00 01 00 00 [.\CCTP..........]
      [snip 24272 bytes]
  + [Movie directory]
  | UUID-Canon (SubDirectory) -->
  | - Tag 'uuid' (22128 bytes):
  |     0028: 85 c0 b6 87 82 0f 11 e0 81 11 f4 ce 46 2b 6a 48 [............F+jH]
  |     0038: 00 00 00 26 43 4e 43 56 43 61 6e 6f 6e 43 52 33 [...&CNCVCanonCR3]
  |     0048: 5f 30 30 31 2f 30 30 2e 30 39 2e 30 30 2f 30 30 [_001/00.09.00/00]
  |     0058: 2e 30 30 2e 30 30 00 00 00 5c 43 43 54 50 00 00 [.00.00...\CCTP..]
  |     0068: 00 00 00 00 00 01 00 00 00 03 00 00 00 18 43 43 [..............CC]
  |     [snip 22048 bytes]
  | + [UUID-Canon directory]
  | | CompressorVersion = CanonCR3_001/00.09.00/00.00.00
  | | - Tag 'CNCV' (30 bytes):
  | |     0040: 43 61 6e 6f 6e 43 52 33 5f 30 30 31 2f 30 30 2e [CanonCR3_001/00.]
  | |     0050: 30 39 2e 30 30 2f 30 30 2e 30 30 2e 30 30       [09.00/00.00.00]
  | | CanonCCTP (SubDirectory) -->
  | | - Tag 'CCTP' (84 bytes):
  | |     0066: 00 00 00 00 00 00 00 01 00 00 00 03 00 00 00 18 [................]
  | |     0076: 43 43 44 54 00 00 00 00 00 00 00 10 00 00 00 00 [CCDT............]
  | |     0086: 00 00 00 01 00 00 00 18 43 43 44 54 00 00 00 00 [........CCDT....]
  | |     0096: 00 00 00 01 00 00 00 00 00 00 00 02 00 00 00 18 [................]
  | |     00a6: 43 43 44 54 00 00 00 00 00 00 00 00 00 00 00 00 [CCDT............]
  | |     00b6: 00 00 00 03                                     [....]
  | | + [CanonCCTP directory]
  | | | Unknown_CCDT = ..
  | | | - Tag 'CCDT' (16 bytes):
  | | |     007a: 00 00 00 00 00 00 00 10 00 00 00 00 00 00 00 01 [................]
  | | | Unknown_CCDT = ..
  | | | - Tag 'CCDT' (16 bytes):
  | | |     0092: 00 00 00 00 00 00 00 01 00 00 00 00 00 00 00 02 [................]
  | | | Unknown_CCDT = .
  | | | - Tag 'CCDT' (16 bytes):
  | | |     00aa: 00 00 00 00 00 00 00 00 00 00 00 00 00 00 00 03 [................]
  | | Unknown_CTBO = .._@...._X.....C7.. P.
  | | - Tag 'CTBO' (84 bytes):
  | |     00c2: 00 00 00 04 00 00 00 01 00 00 00 00 00 00 5f 40 [.............._@]
  | |     00d2: 00 00 00 00 00 01 00 18 00 00 00 02 00 00 00 00 [................]
  | |     00e2: 00 01 5f 58 00 00 00 00 00 04 e3 df 00 00 00 03 [.._X............]
  | |     00f2: 00 00 00 00 00 06 43 37 00 00 00 00 02 09 20 50 [......C7...... P]
  | |     0102: 00 00 00 04 00 00 00 00 00 00 00 00 00 00 00 00 [................]
  | |     0112: 00 00 00 00                                     [....]
  | | Unknown_free = 
  | | - Tag 'free' (2 bytes):
  | |     011e: 00 00                                           [..]
  | | IFD0 (SubDirectory) -->
  | | - Tag 'CMT1' (384 bytes):
  | |     0128: 49 49 2a 00 08 00 00 00 0d 00 00 01 03 00 01 00 [II*.............]
  | |     0138: 00 00 70 17 00 00 01 01 03 00 01 00 00 00 a0 0f [..p.............]
  | |     0148: 00 00 02 01 03 00 03 00 00 00 aa 00 00 00 03 01 [................]
  | |     0158: 03 00 01 00 00 00 06 00 00 00 0f 01 02 00 06 00 [................]
  | |     0168: 00 00 b0 00 00 00 10 01 02 00 0e 00 00 00 b6 00 [................]
  | |     [snip 304 bytes]
  | | + [TIFF directory]
  | | | ExifByteOrder = II
  | | | + [IFD0 directory with 13 entries]
  | | | | 0)  ImageWidth = 6000
  | | | |     - Tag 0x0100 (2 bytes, int16u[1]):
  | | | |         013a: 70 17                                           [p.]
  | | | | 1)  ImageHeight = 4000
  | | | |     - Tag 0x0101 (2 bytes, int16u[1]):
  | | | |         0146: a0 0f                                           [..]
  | | | | 2)  BitsPerSample = 8 8 8
  | | | |     - Tag 0x0102 (6 bytes, int16u[3]):
  | | | |         01d2: 08 00 08 00 08 00                               [......]
  | | | | 3)  Compression = 6
  | | | |     - Tag 0x0103 (2 bytes, int16u[1]):
  | | | |         015e: 06 00                                           [..]
  | | | | 4)  Make = Canon
  | | | |     - Tag 0x010f (6 bytes, string[6]):
  | | | |         01d8: 43 61 6e 6f 6e 00                               [Canon.]
  | | | | 5)  Model = Canon EOS M50
  | | | |     - Tag 0x0110 (14 bytes, string[14]):
  | | | |         01de: 43 61 6e 6f 6e 20 45 4f 53 20 4d 35 30 00       [Canon EOS M50.]
  | | | | 6)  Orientation = 1
  | | | |     - Tag 0x0112 (2 bytes, int16u[1]):
  | | | |         0182: 01 00                                           [..]
  | | | | 7)  XResolution = 72 (72/1)
  | | | |     - Tag 0x011a (8 bytes, rational64u[1]):
  | | | |         01fe: 48 00 00 00 01 00 00 00                         [H.......]
  | | | | 8)  YResolution = 72 (72/1)
  | | | |     - Tag 0x011b (8 bytes, rational64u[1]):
  | | | |         0206: 48 00 00 00 01 00 00 00                         [H.......]
  | | | | 9)  ResolutionUnit = 2
  | | | |     - Tag 0x0128 (2 bytes, int16u[1]):
  | | | |         01a6: 02 00                                           [..]
  | | | | 10) ModifyDate = 2018:02:21 12:07:54
  | | | |     - Tag 0x0132 (20 bytes, string[20]):
  | | | |         020e: 32 30 31 38 3a 30 32 3a 32 31 20 31 32 3a 30 37 [2018:02:21 12:07]
  | | | |         021e: 3a 35 34 00                                     [:54.]
  | | | | 11) Artist = 
  | | | |     - Tag 0x013b (1 bytes, string[1]):
  | | | |         01be: 00                                              [.]
  | | | | 12) Copyright = 
  | | | |     - Tag 0x8298 (1 bytes, string[1] read as undef[1]):
  | | | |         01ca: 00                                              [.]
  | | ExifIFD (SubDirectory) -->
  | | - Tag 'CMT2' (1056 bytes):
  | |     02b0: 49 49 2a 00 08 00 00 00 27 00 9a 82 05 00 01 00 [II*.....'.......]
  | |     02c0: 00 00 e2 01 00 00 9d 82 05 00 01 00 00 00 ea 01 [................]
  | |     02d0: 00 00 22 88 03 00 01 00 00 00 03 00 00 00 27 88 [.."...........'.]
  | |     02e0: 03 00 01 00 00 00 88 13 00 00 30 88 03 00 01 00 [..........0.....]
  | |     02f0: 00 00 02 00 00 00 32 88 04 00 01 00 00 00 88 13 [......2.........]
  | |     [snip 976 bytes]
  | | + [TIFF directory]
  | | | ExifByteOrder = II
  | | | + [ExifIFD directory with 39 entries]
  | | | | 0)  ExposureTime = 0.01666666667 (1/60)
  | | | |     - Tag 0x829a (8 bytes, rational64u[1]):
  | | | |         0492: 01 00 00 00 3c 00 00 00                         [....<...]
  | | | | 1)  FNumber = 3.5 (35/10)
  | | | |     - Tag 0x829d (8 bytes, rational64u[1]):
  | | | |         049a: 23 00 00 00 0a 00 00 00                         [#.......]
  | | | | 2)  ExposureProgram = 3
  | | | |     - Tag 0x8822 (2 bytes, int16u[1]):
  | | | |         02da: 03 00                                           [..]
  | | | | 3)  ISO = 5000
  | | | |     - Tag 0x8827 (2 bytes, int16u[1]):
  | | | |         02e6: 88 13                                           [..]
  | | | | 4)  SensitivityType = 2
  | | | |     - Tag 0x8830 (2 bytes, int16u[1]):
  | | | |         02f2: 02 00                                           [..]
  | | | | 5)  RecommendedExposureIndex = 5000
  | | | |     - Tag 0x8832 (4 bytes, int32u[1]):
  | | | |         02fe: 88 13 00 00                                     [....]
  | | | | 6)  ExifVersion = 0231
  | | | |     - Tag 0x9000 (4 bytes, undef[4]):
  | | | |         030a: 30 32 33 31                                     [0231]
  | | | | 7)  DateTimeOriginal = 2018:02:21 12:07:54
  | | | |     - Tag 0x9003 (20 bytes, string[20]):
  | | | |         04a2: 32 30 31 38 3a 30 32 3a 32 31 20 31 32 3a 30 37 [2018:02:21 12:07]
  | | | |         04b2: 3a 35 34 00                                     [:54.]
  | | | | 8)  CreateDate = 2018:02:21 12:07:54
  | | | |     - Tag 0x9004 (20 bytes, string[20]):
  | | | |         04b6: 32 30 31 38 3a 30 32 3a 32 31 20 31 32 3a 30 37 [2018:02:21 12:07]
  | | | |         04c6: 3a 35 34 00                                     [:54.]
  | | | | 9)  OffsetTime = +00:00
  | | | |     - Tag 0x9010 (7 bytes, string[7]):
  | | | |         06b8: 2b 30 30 3a 30 30 00                            [+00:00.]
  | | | | 10) OffsetTimeOriginal = +00:00
  | | | |     - Tag 0x9011 (7 bytes, string[7]):
  | | | |         06bf: 2b 30 30 3a 30 30 00                            [+00:00.]
  | | | | 11) OffsetTimeDigitized = +00:00
  | | | |     - Tag 0x9012 (7 bytes, string[7]):
  | | | |         06c6: 2b 30 30 3a 30 30 00                            [+00:00.]
  | | | | 12) ComponentsConfiguration = 1 2 3 0
  | | | |     - Tag 0x9101 (4 bytes, undef[4] read as int8u[4]):
  | | | |         0352: 01 02 03 00                                     [....]
  | | | | 13) ShutterSpeedValue = 6 (393216/65536)
  | | | |     - Tag 0x9201 (8 bytes, rational64s[1]):
  | | | |         04ca: 00 00 06 00 00 00 01 00                         [........]
  | | | | 14) ApertureValue = 3.625 (237568/65536)
  | | | |     - Tag 0x9202 (8 bytes, rational64u[1]):
  | | | |         04d2: 00 a0 03 00 00 00 01 00                         [........]
  | | | | 15) ExposureCompensation = 0 (0/1)
  | | | |     - Tag 0x9204 (8 bytes, rational64s[1]):
  | | | |         04da: 00 00 00 00 01 00 00 00                         [........]
  | | | | 16) MeteringMode = 5
  | | | |     - Tag 0x9207 (2 bytes, int16u[1]):
  | | | |         0382: 05 00                                           [..]
  | | | | 17) Flash = 0
  | | | |     - Tag 0x9209 (2 bytes, int16u[1]):
  | | | |         038e: 00 00                                           [..]
  | | | | 18) FocalLength = 15 (15/1)
  | | | |     - Tag 0x920a (8 bytes, rational64u[1]):
  | | | |         04e2: 0f 00 00 00 01 00 00 00                         [........]
  | | | | 19) UserComment = 
  | | | |     - Tag 0x9286 (264 bytes, undef[264]):
  | | | |         04ea: 00 00 00 00 00 00 00 00 00 00 00 00 00 00 00 00 [................]
  | | | |         04fa: 00 00 00 00 00 00 00 00 00 00 00 00 00 00 00 00 [................]
  | | | |         050a: 00 00 00 00 00 00 00 00 00 00 00 00 00 00 00 00 [................]
  | | | |         051a: 00 00 00 00 00 00 00 00 00 00 00 00 00 00 00 00 [................]
  | | | |         052a: 00 00 00 00 00 00 00 00 00 00 00 00 00 00 00 00 [................]
  | | | |         [snip 184 bytes]
  | | | | 20) SubSecTime = 25
  | | | |     - Tag 0x9290 (3 bytes, string[3]):
  | | | |         03b2: 32 35 00                                        [25.]
  | | | | 21) SubSecTimeOriginal = 25
  | | | |     - Tag 0x9291 (3 bytes, string[3]):
  | | | |         03be: 32 35 00                                        [25.]
  | | | | 22) SubSecTimeDigitized = 25
  | | | |     - Tag 0x9292 (3 bytes, string[3]):
  | | | |         03ca: 32 35 00                                        [25.]
  | | | | 23) FlashpixVersion = 0100
  | | | |     - Tag 0xa000 (4 bytes, undef[4]):
  | | | |         03d6: 30 31 30 30                                     [0100]
  | | | | 24) ColorSpace = 1
  | | | |     - Tag 0xa001 (2 bytes, int16u[1]):
  | | | |         03e2: 01 00                                           [..]
  | | | | 25) ExifImageWidth = 6000
  | | | |     - Tag 0xa002 (2 bytes, int16u[1]):
  | | | |         03ee: 70 17                                           [p.]
  | | | | 26) ExifImageHeight = 4000
  | | | |     - Tag 0xa003 (2 bytes, int16u[1]):
  | | | |         03fa: a0 0f                                           [..]
  | | | | 27) FocalPlaneXResolution = 6514.65798 (6000000/921)
  | | | |     - Tag 0xa20e (8 bytes, rational64u[1]):
  | | | |         05f2: 80 8d 5b 00 99 03 00 00                         [..[.....]
  | | | | 28) FocalPlaneYResolution = 6734.006734 (4000000/594)
  | | | |     - Tag 0xa20f (8 bytes, rational64u[1]):
  | | | |         05fa: 00 09 3d 00 52 02 00 00                         [..=.R...]
  | | | | 29) FocalPlaneResolutionUnit = 2
  | | | |     - Tag 0xa210 (2 bytes, int16u[1]):
  | | | |         041e: 02 00                                           [..]
  | | | | 30) CustomRendered = 0
  | | | |     - Tag 0xa401 (2 bytes, int16u[1]):
  | | | |         042a: 00 00                                           [..]
  | | | | 31) ExposureMode = 0
  | | | |     - Tag 0xa402 (2 bytes, int16u[1]):
  | | | |         0436: 00 00                                           [..]
  | | | | 32) WhiteBalance = 0
  | | | |     - Tag 0xa403 (2 bytes, int16u[1]):
  | | | |         0442: 00 00                                           [..]
  | | | | 33) SceneCaptureType = 0
  | | | |     - Tag 0xa406 (2 bytes, int16u[1]):
  | | | |         044e: 00 00                                           [..]
  | | | | 34) OwnerName = 
  | | | |     - Tag 0xa430 (1 bytes, string[1]):
  | | | |         045a: 00                                              [.]
  | | | | 35) SerialNumber = 613040000565
  | | | |     - Tag 0xa431 (13 bytes, string[13]):
  | | | |         0622: 36 31 33 30 34 30 30 30 30 35 36 35 00          [613040000565.]
  | | | | 36) LensInfo = 15 45 0 0 (15/1 45/1 0/1 0/1)
  | | | |     - Tag 0xa432 (32 bytes, rational64u[4]):
  | | | |         0642: 0f 00 00 00 01 00 00 00 2d 00 00 00 01 00 00 00 [........-.......]
  | | | |         0652: 00 00 00 00 01 00 00 00 00 00 00 00 01 00 00 00 [................]
  | | | | 37) LensModel = EF-M15-45mm f/3.5-6.3 IS STM
  | | | |     - Tag 0xa434 (29 bytes, string[29]):
  | | | |         0662: 45 46 2d 4d 31 35 2d 34 35 6d 6d 20 66 2f 33 2e [EF-M15-45mm f/3.]
  | | | |         0672: 35 2d 36 2e 33 20 49 53 20 53 54 4d 00          [5-6.3 IS STM.]
  | | | | 38) LensSerialNumber = 0000000000
  | | | |     - Tag 0xa435 (11 bytes, string[11]):
  | | | |         06ac: 30 30 30 30 30 30 30 30 30 30 00                [0000000000.]
  | | MakerNoteCanon (SubDirectory) -->
  | | - Tag 'CMT3' (5168 bytes):
  | |     06d8: 49 49 2a 00 08 00 00 00 2f 00 01 00 03 00 31 00 [II*...../.....1.]
  | |     06e8: 00 00 42 02 00 00 02 00 03 00 04 00 00 00 a4 02 [..B.............]
  | |     06f8: 00 00 03 00 03 00 04 00 00 00 ac 02 00 00 04 00 [................]
  | |     0708: 03 00 22 00 00 00 b4 02 00 00 06 00 02 00 0e 00 [..".............]
  | |     0718: 00 00 f8 02 00 00 07 00 02 00 18 00 00 00 18 03 [................]
  | |     [snip 5088 bytes]
  | | + [TIFF directory]
  | | | + [Canon directory with 47 entries]
  | | | | 0)  CanonCameraSettings (SubDirectory) -->
  | | | |     - Tag 0x0001 (98 bytes, int16u[49] read as undef[98]):
  | | | |         091a: 62 00 02 00 00 00 04 00 00 00 00 00 00 00 00 01 [b...............]
  | | | |         092a: 00 00 0d 00 00 00 01 00 00 00 00 00 00 00 ff 7f [................]
  | | | |         093a: 0f 00 03 00 02 00 00 00 03 00 ff ff 39 10 2d 00 [............9.-.]
  | | | |         094a: 0f 00 01 00 74 00 20 01 00 00 08 00 00 00 00 00 [....t. .........]
  | | | |         095a: ff ff ff ff ff ff 00 00 00 00 00 00 00 00 ff ff [................]
  | | | |         [snip 18 bytes]
  | | | | + [BinaryData directory, 98 bytes]
  | | | | | MacroMode = 2
  | | | | | - Tag 0x0001 (2 bytes, int16s[1]):
  | | | | |     091c: 02 00                                           [..]
  | | | | | SelfTimer = 0
  | | | | | - Tag 0x0002 (2 bytes, int16s[1]):
  | | | | |     091e: 00 00                                           [..]
  | | | | | Quality = 4
  | | | | | - Tag 0x0003 (2 bytes, int16s[1]):
  | | | | |     0920: 04 00                                           [..]
  | | | | | CanonFlashMode = 0
  | | | | | - Tag 0x0004 (2 bytes, int16s[1]):
  | | | | |     0922: 00 00                                           [..]
  | | | | | ContinuousDrive = 0
  | | | | | - Tag 0x0005 (2 bytes, int16s[1]):
  | | | | |     0924: 00 00                                           [..]
  | | | | | FocusMode = 256
  | | | | | - Tag 0x0007 (2 bytes, int16s[1]):
  | | | | |     0928: 00 01                                           [..]
  | | | | | RecordMode = 13
  | | | | | - Tag 0x0009 (2 bytes, int16s[1]):
  | | | | |     092c: 0d 00                                           [..]
  | | | | | CanonImageSize = 0
  | | | | | - Tag 0x000a (2 bytes, int16s[1]):
  | | | | |     092e: 00 00                                           [..]
  | | | | | EasyMode = 1
  | | | | | - Tag 0x000b (2 bytes, int16s[1]):
  | | | | |     0930: 01 00                                           [..]
  | | | | | DigitalZoom = 0
  | | | | | - Tag 0x000c (2 bytes, int16s[1]):
  | | | | |     0932: 00 00                                           [..]
  | | | | | Contrast = 0
  | | | | | - Tag 0x000d (2 bytes, int16s[1]):
  | | | | |     0934: 00 00                                           [..]
  | | | | | Saturation = 0
  | | | | | - Tag 0x000e (2 bytes, int16s[1]):
  | | | | |     0936: 00 00                                           [..]
  | | | | | Sharpness = 32767
  | | | | | - Tag 0x000f (2 bytes, int16s[1]):
  | | | | |     0938: ff 7f                                           [..]
  | | | | | CameraISO = 15
  | | | | | - Tag 0x0010 (2 bytes, int16s[1]):
  | | | | |     093a: 0f 00                                           [..]
  | | | | | MeteringMode = 3
  | | | | | - Tag 0x0011 (2 bytes, int16s[1]):
  | | | | |     093c: 03 00                                           [..]
  | | | | | FocusRange = 2
  | | | | | - Tag 0x0012 (2 bytes, int16s[1]):
  | | | | |     093e: 02 00                                           [..]
  | | | | | AFPoint = 0
  | | | | | - Tag 0x0013 (2 bytes, int16s[1]):
  | | | | |     0940: 00 00                                           [..]
  | | | | | CanonExposureMode = 3
  | | | | | - Tag 0x0014 (2 bytes, int16s[1]):
  | | | | |     0942: 03 00                                           [..]
  | | | | | LensType = 4153
  | | | | | - Tag 0x0016 (2 bytes, int16u[1]):
  | | | | |     0946: 39 10                                           [9.]
  | | | | | MaxFocalLength = 45
  | | | | | - Tag 0x0017 (2 bytes, int16u[1]):
  | | | | |     0948: 2d 00                                           [-.]
  | | | | | MinFocalLength = 15
  | | | | | - Tag 0x0018 (2 bytes, int16u[1]):
  | | | | |     094a: 0f 00                                           [..]
  | | | | | FocalUnits = 1
  | | | | | - Tag 0x0019 (2 bytes, int16s[1]):
  | | | | |     094c: 01 00                                           [..]
  | | | | | MaxAperture = 116
  | | | | | - Tag 0x001a (2 bytes, int16s[1]):
  | | | | |     094e: 74 00                                           [t.]
  | | | | | MinAperture = 288
  | | | | | - Tag 0x001b (2 bytes, int16s[1]):
  | | | | |     0950: 20 01                                           [ .]
  | | | | | FlashActivity = 0
  | | | | | - Tag 0x001c (2 bytes, int16s[1]):
  | | | | |     0952: 00 00                                           [..]
  | | | | | FlashBits = 8
  | | | | | - Tag 0x001d (2 bytes, int16s[1]):
  | | | | |     0954: 08 00                                           [..]
  | | | | | FocusContinuous = -1
  | | | | | - Tag 0x0020 (2 bytes, int16s[1]):
  | | | | |     095a: ff ff                                           [..]
  | | | | | AESetting = -1
  | | | | | - Tag 0x0021 (2 bytes, int16s[1]):
  | | | | |     095c: ff ff                                           [..]
  | | | | | ImageStabilization = -1
  | | | | | - Tag 0x0022 (2 bytes, int16s[1]):
  | | | | |     095e: ff ff                                           [..]
  | | | | | DisplayAperture = 0
  | | | | | - Tag 0x0023 (2 bytes, int16s[1]):
  | | | | |     0960: 00 00                                           [..]
  | | | | | ZoomSourceWidth = 0
  | | | | | - Tag 0x0024 (2 bytes, int16s[1]):
  | | | | |     0962: 00 00                                           [..]
  | | | | | ZoomTargetWidth = 0
  | | | | | - Tag 0x0025 (2 bytes, int16s[1]):
  | | | | |     0964: 00 00                                           [..]
  | | | | | SpotMeteringMode = -1
  | | | | | - Tag 0x0027 (2 bytes, int16s[1]):
  | | | | |     0968: ff ff                                           [..]
  | | | | | PhotoEffect = -1
  | | | | | - Tag 0x0028 (2 bytes, int16s[1]):
  | | | | |     096a: ff ff                                           [..]
  | | | | | ManualFlashOutput = 0
  | | | | | - Tag 0x0029 (2 bytes, int16s[1]):
  | | | | |     096c: 00 00                                           [..]
  | | | | | ColorTone = 0
  | | | | | - Tag 0x002a (2 bytes, int16s[1]):
  | | | | |     096e: 00 00                                           [..]
  | | | | | SRAWQuality = 0
  | | | | | - Tag 0x002e (2 bytes, int16s[1]):
  | | | | |     0976: 00 00                                           [..]
  | | | | 1)  CanonFocalLength (SubDirectory) -->
  | | | |     - Tag 0x0002 (8 bytes, int16u[4] read as undef[8]):
  | | | |         097c: 00 00 0f 00 ae 63 1d 48                         [.....c.H]
  | | | | + [BinaryData directory, 8 bytes]
  | | | | | FocalType = 0
  | | | | | - Tag 0x0000 (2 bytes, int16u[1]):
  | | | | |     097c: 00 00                                           [..]
  | | | | | FocalLength = 15
  | | | | | - Tag 0x0001 (2 bytes, int16u[1]):
  | | | | |     097e: 0f 00                                           [..]
  | | | | 2)  CanonFlashInfo = 100 0 0 0
  | | | |     - Tag 0x0003 (8 bytes, int16u[4]):
  | | | |         0984: 64 00 00 00 00 00 00 00                         [d.......]
  | | | | 3)  CanonShotInfo (SubDirectory) -->
  | | | |     - Tag 0x0004 (68 bytes, int16u[34] read as undef[68]):
  | | | |         098c: 44 00 00 00 54 01 e0 ff 74 00 c0 00 00 00 00 00 [D...T...t.......]
  | | | |         099c: 03 00 00 00 08 00 08 00 a5 00 00 00 00 00 00 00 [................]
  | | | |         09ac: 00 00 00 00 01 00 00 00 00 00 74 00 c0 00 46 00 [..........t...F.]
  | | | |         09bc: 00 00 00 00 f8 00 00 00 ff ff ff ff ff ff 00 00 [................]
  | | | |         09cc: 00 00 00 00                                     [....]
  | | | | + [BinaryData directory, 68 bytes]
  | | | | | AutoISO = 0
  | | | | | - Tag 0x0001 (2 bytes, int16s[1]):
  | | | | |     098e: 00 00                                           [..]
  | | | | | BaseISO = 340
  | | | | | - Tag 0x0002 (2 bytes, int16s[1]):
  | | | | |     0990: 54 01                                           [T.]
  | | | | | MeasuredEV = -32
  | | | | | - Tag 0x0003 (2 bytes, int16s[1]):
  | | | | |     0992: e0 ff                                           [..]
  | | | | | TargetAperture = 116
  | | | | | - Tag 0x0004 (2 bytes, int16s[1]):
  | | | | |     0994: 74 00                                           [t.]
  | | | | | TargetExposureTime = 192
  | | | | | - Tag 0x0005 (2 bytes, int16s[1]):
  | | | | |     0996: c0 00                                           [..]
  | | | | | ExposureCompensation = 0
  | | | | | - Tag 0x0006 (2 bytes, int16s[1]):
  | | | | |     0998: 00 00                                           [..]
  | | | | | WhiteBalance = 0
  | | | | | - Tag 0x0007 (2 bytes, int16s[1]):
  | | | | |     099a: 00 00                                           [..]
  | | | | | SlowShutter = 3
  | | | | | - Tag 0x0008 (2 bytes, int16s[1]):
  | | | | |     099c: 03 00                                           [..]
  | | | | | SequenceNumber = 0
  | | | | | - Tag 0x0009 (2 bytes, int16s[1]):
  | | | | |     099e: 00 00                                           [..]
  | | | | | OpticalZoomCode = 8
  | | | | | - Tag 0x000a (2 bytes, int16s[1]):
  | | | | |     09a0: 08 00                                           [..]
  | | | | | CameraTemperature = 165
  | | | | | - Tag 0x000c (2 bytes, int16s[1]):
  | | | | |     09a4: a5 00                                           [..]
  | | | | | FlashGuideNumber = 0
  | | | | | - Tag 0x000d (2 bytes, int16s[1]):
  | | | | |     09a6: 00 00                                           [..]
  | | | | | AFPointsInFocus = 0
  | | | | | - Tag 0x000e (2 bytes, int16s[1]):
  | | | | |     09a8: 00 00                                           [..]
  | | | | | FlashExposureComp = 0
  | | | | | - Tag 0x000f (2 bytes, int16s[1]):
  | | | | |     09aa: 00 00                                           [..]
  | | | | | AutoExposureBracketing = 0
  | | | | | - Tag 0x0010 (2 bytes, int16s[1]):
  | | | | |     09ac: 00 00                                           [..]
  | | | | | AEBBracketValue = 0
  | | | | | - Tag 0x0011 (2 bytes, int16s[1]):
  | | | | |     09ae: 00 00                                           [..]
  | | | | | ControlMode = 1
  | | | | | - Tag 0x0012 (2 bytes, int16s[1]):
  | | | | |     09b0: 01 00                                           [..]
  | | | | | FocusDistanceUpper = 0
  | | | | | - Tag 0x0013 (2 bytes, int16u[1]):
  | | | | |     09b2: 00 00                                           [..]
  | | | | | FNumber = 116
  | | | | | - Tag 0x0015 (2 bytes, int16s[1]):
  | | | | |     09b6: 74 00                                           [t.]
  | | | | | ExposureTime = 192
  | | | | | - Tag 0x0016 (2 bytes, int16s[1]):
  | | | | |     09b8: c0 00                                           [..]
  | | | | | MeasuredEV2 = 70
  | | | | | - Tag 0x0017 (2 bytes, int16s[1]):
  | | | | |     09ba: 46 00                                           [F.]
  | | | | | BulbDuration = 0
  | | | | | - Tag 0x0018 (2 bytes, int16s[1]):
  | | | | |     09bc: 00 00                                           [..]
  | | | | | CameraType = 248
  | | | | | - Tag 0x001a (2 bytes, int16s[1]):
  | | | | |     09c0: f8 00                                           [..]
  | | | | | AutoRotate = 0
  | | | | | - Tag 0x001b (2 bytes, int16s[1]):
  | | | | |     09c2: 00 00                                           [..]
  | | | | | NDFilter = -1
  | | | | | - Tag 0x001c (2 bytes, int16s[1]):
  | | | | |     09c4: ff ff                                           [..]
  | | | | | SelfTimer2 = -1
  | | | | | - Tag 0x001d (2 bytes, int16s[1]):
  | | | | |     09c6: ff ff                                           [..]
  | | | | | FlashOutput = 0
  | | | | | - Tag 0x0021 (2 bytes, int16s[1]):
  | | | | |     09ce: 00 00                                           [..]
  | | | | 4)  CanonImageType = Canon EOS M50
  | | | |     - Tag 0x0006 (14 bytes, string[14]):
  | | | |         09d0: 43 61 6e 6f 6e 20 45 4f 53 20 4d 35 30 00       [Canon EOS M50.]
  | | | | 5)  CanonFirmwareVersion = Firmware Version 1.0.0
  | | | |     - Tag 0x0007 (24 bytes, string[24]):
  | | | |         09f0: 46 69 72 6d 77 61 72 65 20 56 65 72 73 69 6f 6e [Firmware Version]
  | | | |         0a00: 20 31 2e 30 2e 30 00 00                         [ 1.0.0..]
  | | | | 6)  OwnerName = 
  | | | |     - Tag 0x0009 (32 bytes, string[32]):
  | | | |         0a08: 00 00 00 00 00 00 00 00 00 00 00 00 00 00 00 00 [................]
  | | | |         0a18: 00 00 00 00 00 00 00 00 00 00 00 00 00 00 00 00 [................]
  | | | | 7)  CanonModelID = 1042
  | | | |     - Tag 0x0010 (4 bytes, int32u[1]):
  | | | |         073e: 12 04 00 00                                     [....]
  | | | | 8)  ThumbnailImageValidArea = 0 159 6 113
  | | | |     - Tag 0x0013 (8 bytes, int16u[4]):
  | | | |         0a28: 00 00 9f 00 06 00 71 00                         [......q.]
  | | | | 9)  Canon_0x0019 = 1
  | | | |     - Tag 0x0019 (2 bytes, int16u[1]):
  | | | |         0756: 01 00                                           [..]
  | | | | 10) CanonAFInfo2 (SubDirectory) -->
  | | | |     - Tag 0x0026 (1216 bytes, int16u[608] read as undef[1216]):
  | | | |         0a30: c0 04 06 00 8f 00 63 00 70 17 a0 0f 70 17 a0 0f [......c.p...p...]
  | | | |         0a40: 68 01 68 01 68 01 68 01 68 01 68 01 68 01 68 01 [h.h.h.h.h.h.h.h.]
  | | | |         0a50: 68 01 68 01 68 01 68 01 68 01 68 01 68 01 68 01 [h.h.h.h.h.h.h.h.]
  | | | |         0a60: 68 01 68 01 68 01 68 01 68 01 68 01 68 01 68 01 [h.h.h.h.h.h.h.h.]
  | | | |         0a70: 68 01 68 01 68 01 68 01 68 01 68 01 68 01 68 01 [h.h.h.h.h.h.h.h.]
  | | | |         [snip 1136 bytes]
  | | | | + [SerialData directory, 1216 bytes]
  | | | | | 0)  AFInfoSize = 1216
  | | | | |     - Tag 0x0000 (2 bytes, int16u[1]):
  | | | | |         0a30: c0 04                                           [..]
  | | | | | 1)  AFAreaMode = 6
  | | | | |     - Tag 0x0001 (2 bytes, int16u[1]):
  | | | | |         0a32: 06 00                                           [..]
  | | | | | 2)  NumAFPoints = 143
  | | | | |     - Tag 0x0002 (2 bytes, int16u[1]):
  | | | | |         0a34: 8f 00                                           [..]
  | | | | | 3)  ValidAFPoints = 99
  | | | | |     - Tag 0x0003 (2 bytes, int16u[1]):
  | | | | |         0a36: 63 00                                           [c.]
  | | | | | 4)  CanonImageWidth = 6000
  | | | | |     - Tag 0x0004 (2 bytes, int16u[1]):
  | | | | |         0a38: 70 17                                           [p.]
  | | | | | 5)  CanonImageHeight = 4000
  | | | | |     - Tag 0x0005 (2 bytes, int16u[1]):
  | | | | |         0a3a: a0 0f                                           [..]
  | | | | | 6)  AFImageWidth = 6000
  | | | | |     - Tag 0x0006 (2 bytes, int16u[1]):
  | | | | |         0a3c: 70 17                                           [p.]
  | | | | | 7)  AFImageHeight = 4000
  | | | | |     - Tag 0x0007 (2 bytes, int16u[1]):
  | | | | |         0a3e: a0 0f                                           [..]
  | | | | | 8)  AFAreaWidths = 360 360 360 360 360 360 360 360 360 360 360 360 360 360 [snip]
  | | | | |     - Tag 0x0008 (286 bytes, int16s[143]):
  | | | | |         0a40: 68 01 68 01 68 01 68 01 68 01 68 01 68 01 68 01 [h.h.h.h.h.h.h.h.]
  | | | | |         0a50: 68 01 68 01 68 01 68 01 68 01 68 01 68 01 68 01 [h.h.h.h.h.h.h.h.]
  | | | | |         0a60: 68 01 68 01 68 01 68 01 68 01 68 01 68 01 68 01 [h.h.h.h.h.h.h.h.]
  | | | | |         0a70: 68 01 68 01 68 01 68 01 68 01 68 01 68 01 68 01 [h.h.h.h.h.h.h.h.]
  | | | | |         0a80: 68 01 68 01 68 01 68 01 68 01 68 01 68 01 68 01 [h.h.h.h.h.h.h.h.]
  | | | | |         [snip 206 bytes]
  | | | | | 9)  AFAreaHeights = 300 300 300 300 300 300 300 300 300 300 300 300 300 300[snip]
  | | | | |     - Tag 0x0009 (286 bytes, int16s[143]):
  | | | | |         0b5e: 2c 01 2c 01 2c 01 2c 01 2c 01 2c 01 2c 01 2c 01 [,.,.,.,.,.,.,.,.]
  | | | | |         0b6e: 2c 01 2c 01 2c 01 2c 01 2c 01 2c 01 2c 01 2c 01 [,.,.,.,.,.,.,.,.]
  | | | | |         0b7e: 2c 01 2c 01 2c 01 2c 01 2c 01 2c 01 2c 01 2c 01 [,.,.,.,.,.,.,.,.]
  | | | | |         0b8e: 2c 01 2c 01 2c 01 2c 01 2c 01 2c 01 2c 01 2c 01 [,.,.,.,.,.,.,.,.]
  | | | | |         0b9e: 2c 01 2c 01 2c 01 2c 01 2c 01 2c 01 2c 01 2c 01 [,.,.,.,.,.,.,.,.]
  | | | | |         [snip 206 bytes]
  | | | | | 10) AFAreaXPositions = -1940 -1552 -1164 -776 -388 0 388 776 1164 1552 1940[snip]
  | | | | |     - Tag 0x000a (286 bytes, int16s[143]):
  | | | | |         0c7c: 6c f8 f0 f9 74 fb f8 fc 7c fe 00 00 84 01 08 03 [l...t...|.......]
  | | | | |         0c8c: 8c 04 10 06 94 07 6c f8 f0 f9 74 fb f8 fc 7c fe [......l...t...|.]
  | | | | |         0c9c: 00 00 84 01 08 03 8c 04 10 06 94 07 6c f8 f0 f9 [............l...]
  | | | | |         0cac: 74 fb f8 fc 7c fe 00 00 84 01 08 03 8c 04 10 06 [t...|...........]
  | | | | |         0cbc: 94 07 6c f8 f0 f9 74 fb f8 fc 7c fe 00 00 84 01 [..l...t...|.....]
  | | | | |         [snip 206 bytes]
  | | | | | 11) AFAreaYPositions = 1360 1360 1360 1360 1360 1360 1360 1360 1360 1360 13[snip]
  | | | | |     - Tag 0x000b (286 bytes, int16s[143]):
  | | | | |         0d9a: 50 05 50 05 50 05 50 05 50 05 50 05 50 05 50 05 [P.P.P.P.P.P.P.P.]
  | | | | |         0daa: 50 05 50 05 50 05 fc 03 fc 03 fc 03 fc 03 fc 03 [P.P.P...........]
  | | | | |         0dba: fc 03 fc 03 fc 03 fc 03 fc 03 fc 03 a8 02 a8 02 [................]
  | | | | |         0dca: a8 02 a8 02 a8 02 a8 02 a8 02 a8 02 a8 02 a8 02 [................]
  | | | | |         0dda: a8 02 54 01 54 01 54 01 54 01 54 01 54 01 54 01 [..T.T.T.T.T.T.T.]
  | | | | |         [snip 206 bytes]
  | | | | | 12) AFPointsInFocus = 0 0 0 16384 512 0 0 0 0
  | | | | |     - Tag 0x000c (18 bytes, int16s[9]):
  | | | | |         0eb8: 00 00 00 00 00 00 00 40 00 02 00 00 00 00 00 00 [.......@........]
  | | | | |         0ec8: 00 00                                           [..]
  | | | | | 13) AFPointsSelected = -1 -1 -1 -1 -1 -1 7 0 0
  | | | | |     - Tag 0x000d (18 bytes, int16s[9]):
  | | | | |         0eca: ff ff ff ff ff ff ff ff ff ff ff ff 07 00 00 00 [................]
  | | | | |         0eda: 00 00                                           [..]
  | | | | 11) ImageUniqueID = A...k........Q.)
  | | | |     - Tag 0x0028 (16 bytes, int8u[16] read as undef[16]):
  | | | |         0ef0: 41 7f e3 9f 6b f5 d5 e1 b6 0c a2 b2 f0 51 a0 29 [A...k........Q.)]
  | | | | 12) Canon_0x0033 = 1574403960 3788849265 2996964534 698372592
  | | | |     - Tag 0x0033 (16 bytes, int32u[4]):
  | | | |         0f00: 78 7f d7 5d 71 40 d5 e1 b6 0c a2 b2 f0 51 a0 29 [x..]q@.......Q.)]
  | | | | 13) TimeInfo (SubDirectory) -->
  | | | |     - Tag 0x0035 (16 bytes, int32u[4] read as undef[16]):
  | | | |         0f10: 10 00 00 00 00 00 00 00 14 00 00 00 00 00 00 00 [................]
  | | | | + [BinaryData directory, 16 bytes]
  | | | | | TimeZone = 0
  | | | | | - Tag 0x0001 (4 bytes, int32s[1]):
  | | | | |     0f14: 00 00 00 00                                     [....]
  | | | | | TimeZoneCity = 20
  | | | | | - Tag 0x0002 (4 bytes, int32s[1]):
  | | | | |     0f18: 14 00 00 00                                     [....]
  | | | | | DaylightSavings = 0
  | | | | | - Tag 0x0003 (4 bytes, int32s[1]):
  | | | | |     0f1c: 00 00 00 00                                     [....]
  | | | | 14) BatteryType = LLP-E12.
  | | | |     - Tag 0x0038 (76 bytes, undef[76]):
  | | | |         0f20: 4c 00 00 00 4c 50 2d 45 31 32 00 00 00 00 00 00 [L...LP-E12......]
  | | | |         0f30: 00 00 00 00 00 00 00 00 00 00 00 00 00 00 00 00 [................]
  | | | |         0f40: 00 00 00 00 00 00 00 00 00 00 00 00 01 00 00 00 [................]
  | | | |         0f50: 00 00 00 00 00 00 00 00 00 00 00 00 00 00 00 00 [................]
  | | | |         0f60: 00 00 00 00 00 00 00 00 00 00 00 00             [............]
  | | | | 15) Canon_0x003d = 48 1 1 0 0 0 0 0 0 0 0 1
  | | | |     - Tag 0x003d (48 bytes, int32u[12]):
  | | | |         0f6c: 30 00 00 00 01 00 00 00 01 00 00 00 00 00 00 00 [0...............]
  | | | |         0f7c: 00 00 00 00 00 00 00 00 00 00 00 00 00 00 00 00 [................]
  | | | |         0f8c: 00 00 00 00 00 00 00 00 00 00 00 00 01 00 00 00 [................]
  | | | | 16) Canon_0x003f = 17
  | | | |     - Tag 0x003f (4 bytes, int32u[1]):
  | | | |         07aa: 11 00 00 00                                     [....]
  | | | | 17) CanonFileInfo (SubDirectory) -->
  | | | |     - Tag 0x0093 (132 bytes, int16u[66] read as undef[132]):
  | | | |         0f9c: 84 00 00 00 00 00 00 00 00 00 00 00 00 00 00 00 [................]
  | | | |         0fac: ff ff 00 00 00 00 00 00 00 00 00 00 ff ff ff ff [................]
  | | | |         0fbc: 16 01 ff ff 01 00 01 00 25 00 22 00 00 00 01 00 [........%.".....]
  | | | |         0fcc: 00 00 00 00 ff ff 00 00 3f 00 3f 00 19 00 1f 00 [........?.?.....]
  | | | |         0fdc: 00 00 74 00 00 00 00 00 00 00 00 00 00 00 00 00 [..t.............]
  | | | |         [snip 52 bytes]
  | | | | + [BinaryData directory, 132 bytes]
  | | | | | BracketMode = 0
  | | | | | - Tag 0x0003 (2 bytes, int16s[1]):
  | | | | |     0fa2: 00 00                                           [..]
  | | | | | BracketValue = 0
  | | | | | - Tag 0x0004 (2 bytes, int16s[1]):
  | | | | |     0fa4: 00 00                                           [..]
  | | | | | BracketShotNumber = 0
  | | | | | - Tag 0x0005 (2 bytes, int16s[1]):
  | | | | |     0fa6: 00 00                                           [..]
  | | | | | RawJpgQuality = 0
  | | | | | - Tag 0x0006 (2 bytes, int16s[1]):
  | | | | |     0fa8: 00 00                                           [..]
  | | | | | RawJpgSize = 0
  | | | | | - Tag 0x0007 (2 bytes, int16s[1]):
  | | | | |     0faa: 00 00                                           [..]
  | | | | | LongExposureNoiseReduction2 = -1
  | | | | | - Tag 0x0008 (2 bytes, int16s[1]):
  | | | | |     0fac: ff ff                                           [..]
  | | | | | WBBracketMode = 0
  | | | | | - Tag 0x0009 (2 bytes, int16s[1]):
  | | | | |     0fae: 00 00                                           [..]
  | | | | | WBBracketValueAB = 0
  | | | | | - Tag 0x000c (2 bytes, int16s[1]):
  | | | | |     0fb4: 00 00                                           [..]
  | | | | | WBBracketValueGM = 0
  | | | | | - Tag 0x000d (2 bytes, int16s[1]):
  | | | | |     0fb6: 00 00                                           [..]
  | | | | | FilterEffect = -1
  | | | | | - Tag 0x000e (2 bytes, int16s[1]):
  | | | | |     0fb8: ff ff                                           [..]
  | | | | | ToningEffect = -1
  | | | | | - Tag 0x000f (2 bytes, int16s[1]):
  | | | | |     0fba: ff ff                                           [..]
  | | | | | LiveViewShooting = 1
  | | | | | - Tag 0x0013 (2 bytes, int16s[1]):
  | | | | |     0fc2: 01 00                                           [..]
  | | | | | FocusDistanceUpper = 37
  | | | | | - Tag 0x0014 (2 bytes, int16u[1]):
  | | | | |     0fc4: 25 00                                           [%.]
  | | | | | FocusDistanceLower = 34
  | | | | | - Tag 0x0015 (2 bytes, int16u[1]):
  | | | | |     0fc6: 22 00                                           [".]
  | | | | | FlashExposureLock = 0
  | | | | | - Tag 0x0019 (2 bytes, int16s[1]):
  | | | | |     0fce: 00 00                                           [..]
  | | | | 18) LensModel = EF-M15-45mm f/3.5-6.3 IS STM
  | | | |     - Tag 0x0095 (74 bytes, string[74]):
  | | | |         1020: 45 46 2d 4d 31 35 2d 34 35 6d 6d 20 66 2f 33 2e [EF-M15-45mm f/3.]
  | | | |         1030: 35 2d 36 2e 33 20 49 53 20 53 54 4d 00 00 00 00 [5-6.3 IS STM....]
  | | | |         1040: 00 00 00 00 00 00 00 00 00 00 00 00 00 00 00 00 [................]
  | | | |         1050: 00 00 00 00 00 00 00 00 00 00 00 00 00 00 00 00 [................]
  | | | |         1060: 00 00 00 00 00 00 00 00 00 00                   [..........]
  | | | | 19) InternalSerialNumber = CG0156580
  | | | |     - Tag 0x0096 (16 bytes, string[16]):
  | | | |         106a: 43 47 30 31 35 36 35 38 30 00 00 00 00 00 00 00 [CG0156580.......]
  | | | | 20) DustRemovalData = 
  | | | |     - Tag 0x0097 (1024 bytes, undef[1024]):
  | | | |         107a: 00 00 00 00 00 00 00 00 00 00 00 00 00 00 00 00 [................]
  | | | |         108a: 00 00 00 00 00 00 00 00 00 00 00 00 00 00 00 00 [................]
  | | | |         109a: 00 00 00 00 00 00 00 00 00 00 00 00 00 00 00 00 [................]
  | | | |         10aa: 00 00 00 00 00 00 00 00 00 00 00 00 00 00 00 00 [................]
  | | | |         10ba: 00 00 00 00 00 00 00 00 00 00 00 00 00 00 00 00 [................]
  | | | |         [snip 944 bytes]
  | | | | 21) CropInfo (SubDirectory) -->
  | | | |     - Tag 0x0098 (8 bytes, int16u[4] read as undef[8]):
  | | | |         147a: 00 00 00 00 00 00 00 00                         [........]
  | | | | + [BinaryData directory, 8 bytes]
  | | | | | CropLeftMargin = 0
  | | | | | - Tag 0x0000 (2 bytes, int16u[1]):
  | | | | |     147a: 00 00                                           [..]
  | | | | | CropRightMargin = 0
  | | | | | - Tag 0x0001 (2 bytes, int16u[1]):
  | | | | |     147c: 00 00                                           [..]
  | | | | | CropTopMargin = 0
  | | | | | - Tag 0x0002 (2 bytes, int16u[1]):
  | | | | |     147e: 00 00                                           [..]
  | | | | | CropBottomMargin = 0
  | | | | | - Tag 0x0003 (2 bytes, int16u[1]):
  | | | | |     1480: 00 00                                           [..]
  | | | | 22) CustomFunctions2 (SubDirectory) -->
  | | | |     - Tag 0x0099 (140 bytes, int32u[35] read as undef[140]):
  | | | |         1482: 8c 00 00 00 02 00 00 00 01 00 00 00 20 00 00 00 [............ ...]
  | | | |         1492: 02 00 00 00 03 01 00 00 01 00 00 00 00 00 00 00 [................]
  | | | |         14a2: 08 01 00 00 01 00 00 00 00 00 00 00 04 00 00 00 [................]
  | | | |         14b2: 5c 00 00 00 03 00 00 00 11 07 00 00 01 00 00 00 [\...............]
  | | | |         14c2: 00 00 00 00 14 08 00 00 01 00 00 00 00 00 00 00 [................]
  | | | |         [snip 60 bytes]
  | | | | + [CanonCustom2 directory with 2 entries, 140 bytes]
  | | | | + [CanonCustom2 group 1 directory with 2 entries, 32 bytes]
  | | | | | 0)  ISOExpansion = 0
  | | | | |     - Tag 0x0103 (4 bytes, int32u[1])
  | | | | | 1)  SafetyShift = 0
  | | | | |     - Tag 0x0108 (4 bytes, int32u[1])
  | | | | + [CanonCustom2 group 4 directory with 3 entries, 92 bytes]
  | | | | | 0)  ShutterReleaseWithoutLens = 0
  | | | | |     - Tag 0x0711 (4 bytes, int32u[1])
  | | | | | 1)  RetractLensOnPowerOff = 0
  | | | | |     - Tag 0x0814 (4 bytes, int32u[1])
  | | | | | 2)  CustomControls = 0 19 3 10 23 73 71 61 29 0 7 3 4
  | | | | |     - Tag 0x070c (52 bytes, int32u[13])
  | | | | 23) AspectInfo (SubDirectory) -->
  | | | |     - Tag 0x009a (20 bytes, int32u[5] read as undef[20]):
  | | | |         150e: 00 00 00 00 70 17 00 00 a0 0f 00 00 00 00 00 00 [....p...........]
  | | | |         151e: 00 00 00 00                                     [....]
  | | | | + [BinaryData directory, 20 bytes]
  | | | | | AspectRatio = 0
  | | | | | - Tag 0x0000 (4 bytes, int32u[1]):
  | | | | |     150e: 00 00 00 00                                     [....]
  | | | | | CroppedImageWidth = 6000
  | | | | | - Tag 0x0001 (4 bytes, int32u[1]):
  | | | | |     1512: 70 17 00 00                                     [p...]
  | | | | | CroppedImageHeight = 4000
  | | | | | - Tag 0x0002 (4 bytes, int32u[1]):
  | | | | |     1516: a0 0f 00 00                                     [....]
  | | | | | CroppedImageLeft = 0
  | | | | | - Tag 0x0003 (4 bytes, int32u[1]):
  | | | | |     151a: 00 00 00 00                                     [....]
  | | | | | CroppedImageTop = 0
  | | | | | - Tag 0x0004 (4 bytes, int32u[1]):
  | | | | |     151e: 00 00 00 00                                     [....]
  | | | | 24) ProcessingInfo (SubDirectory) -->
  | | | |     - Tag 0x00a0 (36 bytes, int16u[18] read as undef[36]):
  | | | |         1522: 24 00 00 00 04 00 00 00 00 00 00 00 00 00 00 00 [$...............]
  | | | |         1532: ff ff 50 14 87 00 00 00 00 00 00 00 02 00 04 00 [..P.............]
  | | | |         1542: 00 00 ff ff                                     [....]
  | | | | + [BinaryData directory, 36 bytes]
  | | | | | ToneCurve = 0
  | | | | | - Tag 0x0001 (2 bytes, int16s[1]):
  | | | | |     1524: 00 00                                           [..]
  | | | | | Sharpness = 4
  | | | | | - Tag 0x0002 (2 bytes, int16s[1]):
  | | | | |     1526: 04 00                                           [..]
  | | | | | SharpnessFrequency = 0
  | | | | | - Tag 0x0003 (2 bytes, int16s[1]):
  | | | | |     1528: 00 00                                           [..]
  | | | | | SensorRedLevel = 0
  | | | | | - Tag 0x0004 (2 bytes, int16s[1]):
  | | | | |     152a: 00 00                                           [..]
  | | | | | SensorBlueLevel = 0
  | | | | | - Tag 0x0005 (2 bytes, int16s[1]):
  | | | | |     152c: 00 00                                           [..]
  | | | | | WhiteBalanceRed = 0
  | | | | | - Tag 0x0006 (2 bytes, int16s[1]):
  | | | | |     152e: 00 00                                           [..]
  | | | | | WhiteBalanceBlue = 0
  | | | | | - Tag 0x0007 (2 bytes, int16s[1]):
  | | | | |     1530: 00 00                                           [..]
  | | | | | WhiteBalance = -1
  | | | | | - Tag 0x0008 (2 bytes, int16s[1]):
  | | | | |     1532: ff ff                                           [..]
  | | | | | ColorTemperature = 5200
  | | | | | - Tag 0x0009 (2 bytes, int16s[1]):
  | | | | |     1534: 50 14                                           [P.]
  | | | | | PictureStyle = 135
  | | | | | - Tag 0x000a (2 bytes, int16s[1]):
  | | | | |     1536: 87 00                                           [..]
  | | | | | DigitalGain = 0
  | | | | | - Tag 0x000b (2 bytes, int16s[1]):
  | | | | |     1538: 00 00                                           [..]
  | | | | | WBShiftAB = 0
  | | | | | - Tag 0x000c (2 bytes, int16s[1]):
  | | | | |     153a: 00 00                                           [..]
  | | | | | WBShiftGM = 0
  | | | | | - Tag 0x000d (2 bytes, int16s[1]):
  | | | | |     153c: 00 00                                           [..]
  | | | | 25) MeasuredColor (SubDirectory) -->
  | | | |     - Tag 0x00aa (12 bytes, int16u[6] read as undef[12]):
  | | | |         1546: 0c 00 05 05 00 04 00 04 a5 01 00 00             [............]
  | | | | + [BinaryData directory, 12 bytes]
  | | | | | MeasuredRGGB = 1285 1024 1024 421
  | | | | | - Tag 0x0001 (8 bytes, int16u[4]):
  | | | | |     1548: 05 05 00 04 00 04 a5 01                         [........]
  | | | | 26) ColorSpace = 1
  | | | |     - Tag 0x00b4 (2 bytes, int16u[1]):
  | | | |         0822: 01 00                                           [..]
  | | | | 27) VRDOffset = 0
  | | | |     - Tag 0x00d0 (4 bytes, int32u[1]):
  | | | |         082e: 00 00 00 00                                     [....]
  | | | | 28) SensorInfo (SubDirectory) -->
  | | | |     - Tag 0x00e0 (34 bytes, int16u[17] read as undef[34]):
  | | | |         1552: 22 00 90 18 d8 0f 01 00 01 00 14 01 30 00 83 18 ["...........0...]
  | | | |         1562: cf 0f 00 00 00 00 00 00 00 00 00 00 00 00 00 00 [................]
  | | | |         1572: 00 00                                           [..]
  | | | | + [BinaryData directory, 34 bytes]
  | | | | | SensorWidth = 6288
  | | | | | - Tag 0x0001 (2 bytes, int16s[1]):
  | | | | |     1554: 90 18                                           [..]
  | | | | | SensorHeight = 4056
  | | | | | - Tag 0x0002 (2 bytes, int16s[1]):
  | | | | |     1556: d8 0f                                           [..]
  | | | | | SensorLeftBorder = 276
  | | | | | - Tag 0x0005 (2 bytes, int16s[1]):
  | | | | |     155c: 14 01                                           [..]
  | | | | | SensorTopBorder = 48
  | | | | | - Tag 0x0006 (2 bytes, int16s[1]):
  | | | | |     155e: 30 00                                           [0.]
  | | | | | SensorRightBorder = 6275
  | | | | | - Tag 0x0007 (2 bytes, int16s[1]):
  | | | | |     1560: 83 18                                           [..]
  | | | | | SensorBottomBorder = 4047
  | | | | | - Tag 0x0008 (2 bytes, int16s[1]):
  | | | | |     1562: cf 0f                                           [..]
  | | | | | BlackMaskLeftBorder = 0
  | | | | | - Tag 0x0009 (2 bytes, int16s[1]):
  | | | | |     1564: 00 00                                           [..]
  | | | | | BlackMaskTopBorder = 0
  | | | | | - Tag 0x000a (2 bytes, int16s[1]):
  | | | | |     1566: 00 00                                           [..]
  | | | | | BlackMaskRightBorder = 0
  | | | | | - Tag 0x000b (2 bytes, int16s[1]):
  | | | | |     1568: 00 00                                           [..]
  | | | | | BlackMaskBottomBorder = 0
  | | | | | - Tag 0x000c (2 bytes, int16s[1]):
  | | | | |     156a: 00 00                                           [..]
  | | | | 29) PictureStyleUserDef = 135 135 135
  | | | |     - Tag 0x4008 (6 bytes, int16u[3]):
  | | | |         1574: 87 00 87 00 87 00                               [......]
  | | | | 30) PictureStylePC = 0 0 0
  | | | |     - Tag 0x4009 (6 bytes, int16u[3]):
  | | | |         157a: 00 00 00 00 00 00                               [......]
  | | | | 31) CustomPictureStyleFileName = 
  | | | |     - Tag 0x4010 (32 bytes, string[32]):
  | | | |         1580: 00 00 00 00 00 00 00 00 00 00 00 00 00 00 00 00 [................]
  | | | |         1590: 00 00 00 00 00 00 00 00 00 00 00 00 00 00 00 00 [................]
  | | | | 32) Canon_0x4011 = 
  | | | |     - Tag 0x4011 (252 bytes, undef[252]):
  | | | |         15a0: 00 00 00 00 00 00 00 00 00 00 00 00 00 00 00 00 [................]
  | | | |         15b0: 00 00 00 00 00 00 00 00 00 00 00 00 00 00 00 00 [................]
  | | | |         15c0: 00 00 00 00 00 00 00 00 00 00 00 00 00 00 00 00 [................]
  | | | |         15d0: 00 00 00 00 00 00 00 00 00 00 00 00 00 00 00 00 [................]
  | | | |         15e0: 00 00 00 00 00 00 00 00 00 00 00 00 00 00 00 00 [................]
  | | | |         [snip 172 bytes]
  | | | | 33) Canon_0x4012 = 
  | | | |     - Tag 0x4012 (32 bytes, string[32]):
  | | | |         169c: 00 00 00 00 00 00 00 00 00 00 00 00 00 00 00 00 [................]
  | | | |         16ac: 00 00 00 00 00 00 00 00 00 00 00 00 00 00 00 00 [................]
  | | | | 34) AFMicroAdj (SubDirectory) -->
  | | | |     - Tag 0x4013 (44 bytes, int32u[11] read as undef[44]):
  | | | |         16bc: 2c 00 00 00 00 00 00 00 00 00 00 00 0a 00 00 00 [,...............]
  | | | |         16cc: ff ff ff ff 00 00 00 00 0a 00 00 00 00 00 00 00 [................]
  | | | |         16dc: 0a 00 00 00 00 00 00 00 0a 00 00 00             [............]
  | | | | + [BinaryData directory, 44 bytes]
  | | | | | AFMicroAdjMode = 0
  | | | | | - Tag 0x0001 (4 bytes, int32s[1]):
  | | | | |     16c0: 00 00 00 00                                     [....]
  | | | | | AFMicroAdjValue = 0
  | | | | | - Tag 0x0002 (8 bytes, rational64s[1]):
  | | | | |     16c4: 00 00 00 00 0a 00 00 00                         [........]
  | | | | 35) VignettingCorr2 (SubDirectory) -->
  | | | |     - Tag 0x4016 (40 bytes, int32u[10] read as undef[40]):
  | | | |         16e8: 28 00 00 00 00 00 00 00 01 00 00 00 00 00 00 00 [(...............]
  | | | |         16f8: 01 00 00 00 01 00 00 00 01 00 00 00 00 00 00 00 [................]
  | | | |         1708: 01 00 00 00 00 00 00 00                         [........]
  | | | | + [BinaryData directory, 40 bytes]
  | | | | | PeripheralLightingSetting = 1
  | | | | | - Tag 0x0005 (4 bytes, int32s[1]):
  | | | | |     16fc: 01 00 00 00                                     [....]
  | | | | | ChromaticAberrationSetting = 1
  | | | | | - Tag 0x0006 (4 bytes, int32s[1]):
  | | | | |     1700: 01 00 00 00                                     [....]
  | | | | 36) LightingOpt (SubDirectory) -->
  | | | |     - Tag 0x4018 (52 bytes, int32u[13] read as undef[52]):
  | | | |         1710: 34 00 00 00 00 00 00 00 00 00 00 00 00 00 00 00 [4...............]
  | | | |         1720: 00 00 00 00 00 00 00 00 01 00 00 00 00 00 00 00 [................]
  | | | |         1730: 01 00 00 00 01 00 00 00 00 00 00 00 00 00 00 00 [................]
  | | | |         1740: 01 00 00 00                                     [....]
  | | | | + [BinaryData directory, 52 bytes]
  | | | | | PeripheralIlluminationCorr = 0
  | | | | | - Tag 0x0001 (4 bytes, int32s[1]):
  | | | | |     1714: 00 00 00 00                                     [....]
  | | | | | AutoLightingOptimizer = 0
  | | | | | - Tag 0x0002 (4 bytes, int32s[1]):
  | | | | |     1718: 00 00 00 00                                     [....]
  | | | | | HighlightTonePriority = 0
  | | | | | - Tag 0x0003 (4 bytes, int32s[1]):
  | | | | |     171c: 00 00 00 00                                     [....]
  | | | | | LongExposureNoiseReduction = 0
  | | | | | - Tag 0x0004 (4 bytes, int32s[1]):
  | | | | |     1720: 00 00 00 00                                     [....]
  | | | | | HighISONoiseReduction = 0
  | | | | | - Tag 0x0005 (4 bytes, int32s[1]):
  | | | | |     1724: 00 00 00 00                                     [....]
  | | | | 37) LensInfo (SubDirectory) -->
  | | | |     - Tag 0x4019 (30 bytes, undef[30]):
  | | | |         1744: 00 00 00 00 00 00 00 00 00 00 00 00 00 00 00 00 [................]
  | | | |         1754: 00 00 00 00 00 00 00 00 00 00 00 00 00 00       [..............]
  | | | | + [BinaryData directory, 30 bytes]
  | | | | | LensSerialNumber = 
  | | | | | - Tag 0x0000 (5 bytes, undef[5]):
  | | | | |     1744: 00 00 00 00 00                                  [.....]
  | | | | 38) AmbienceInfo (SubDirectory) -->
  | | | |     - Tag 0x4020 (32 bytes, int32u[8] read as undef[32]):
  | | | |         1762: 20 00 00 00 00 00 00 00 00 00 00 00 00 00 00 00 [ ...............]
  | | | |         1772: ff ff ff 7f 00 00 00 00 01 00 00 00 01 00 00 00 [................]
  | | | | + [BinaryData directory, 32 bytes]
  | | | | | AmbienceSelection = 0
  | | | | | - Tag 0x0001 (4 bytes, int32s[1]):
  | | | | |     1766: 00 00 00 00                                     [....]
  | | | | 39) FilterInfo (SubDirectory) -->
  | | | |     - Tag 0x4024 (212 bytes, int32u[53] read as undef[212]):
  | | | |         1782: d4 00 00 00 07 00 00 00 01 00 00 00 14 00 00 00 [................]
  | | | |         1792: 01 00 00 00 01 01 00 00 01 00 00 00 ff ff ff ff [................]
  | | | |         17a2: 02 00 00 00 14 00 00 00 01 00 00 00 01 02 00 00 [................]
  | | | |         17b2: 01 00 00 00 ff ff ff ff 03 00 00 00 14 00 00 00 [................]
  | | | |         17c2: 01 00 00 00 01 03 00 00 01 00 00 00 ff ff ff ff [................]
  | | | |         [snip 132 bytes]
  | | | | + [Creative Filter directory with 7 entries]
  | | | | + [Filter 1 directory with 1 entries, 20 bytes]
  | | | | | GrainyBWFilter = -1
  | | | | | - Tag 0x0101 (4 bytes):
  | | | | |     10c6: ff ff ff ff                                     [....]
  | | | | + [Filter 2 directory with 1 entries, 20 bytes]
  | | | | | SoftFocusFilter = -1
  | | | | | - Tag 0x0201 (4 bytes):
  | | | | |     10de: ff ff ff ff                                     [....]
  | | | | + [Filter 3 directory with 1 entries, 20 bytes]
  | | | | | ToyCameraFilter = -1
  | | | | | - Tag 0x0301 (4 bytes):
  | | | | |     10f6: ff ff ff ff                                     [....]
  | | | | + [Filter 4 directory with 4 entries, 56 bytes]
  | | | | | MiniatureFilter = -1
  | | | | | - Tag 0x0401 (4 bytes):
  | | | | |     110e: ff ff ff ff                                     [....]
  | | | | | MiniatureFilterOrientation = 0
  | | | | | - Tag 0x0402 (4 bytes):
  | | | | |     111a: 00 00 00 00                                     [....]
  | | | | | MiniatureFilterPosition = 0
  | | | | | - Tag 0x0403 (4 bytes):
  | | | | |     1126: 00 00 00 00                                     [....]
  | | | | | MiniatureFilterParameter = 0
  | | | | | - Tag 0x0404 (4 bytes):
  | | | | |     1132: 00 00 00 00                                     [....]
  | | | | + [Filter 5 directory with 1 entries, 20 bytes]
  | | | | | FisheyeFilter = -1
  | | | | | - Tag 0x0501 (4 bytes):
  | | | | |     114a: ff ff ff ff                                     [....]
  | | | | + [Filter 6 directory with 1 entries, 20 bytes]
  | | | | | PaintingFilter = -1
  | | | | | - Tag 0x0601 (4 bytes):
  | | | | |     1162: ff ff ff ff                                     [....]
  | | | | + [Filter 7 directory with 1 entries, 20 bytes]
  | | | | | WatercolorFilter = -1
  | | | | | - Tag 0x0701 (4 bytes):
  | | | | |     117a: ff ff ff ff                                     [....]
  | | | | 40) HDRInfo (SubDirectory) -->
  | | | |     - Tag 0x4025 (36 bytes, int32u[9] read as undef[36]):
  | | | |         1856: 24 00 00 00 00 00 00 00 00 00 00 00 00 00 00 00 [$...............]
  | | | |         1866: 00 00 00 00 00 00 00 00 00 00 00 00 00 00 00 00 [................]
  | | | |         1876: 00 00 00 00                                     [....]
  | | | | + [BinaryData directory, 36 bytes]
  | | | | | HDR = 0
  | | | | | - Tag 0x0001 (4 bytes, int32s[1]):
  | | | | |     185a: 00 00 00 00                                     [....]
  | | | | | HDREffect = 0
  | | | | | - Tag 0x0002 (4 bytes, int32s[1]):
  | | | | |     185e: 00 00 00 00                                     [....]
  | | | | 41) Canon_0x4027 = 24 393984 872415232 0 13684944 131072
  | | | |     - Tag 0x4027 (24 bytes, int32u[6]):
  | | | |         187a: 18 00 00 00 00 03 06 00 00 00 00 34 00 00 00 00 [...........4....]
  | | | |         188a: d0 d0 d0 00 00 00 02 00                         [........]
  | | | | 42) Canon_0x402c = 8 0
  | | | |     - Tag 0x402c (8 bytes, int32u[2]):
  | | | |         1892: 08 00 00 00 00 00 00 00                         [........]
  | | | | 43) Canon_0x4035 = 0.P...1. ...9...=.|..$....k.S........@&....t.5.[....}...G.[snip]
  | | | |     - Tag 0x4035 (556 bytes, undef[556]):
  | | | |         189a: 30 1b 50 16 1f 12 31 0c 20 07 a0 03 39 02 1c 02 [0.P...1. ...9...]
  | | | |         18aa: 3d 02 7c 01 d2 24 ae 18 af 0e 6b 07 53 03 8f 01 [=.|..$....k.S...]
  | | | |         18ba: e7 00 b6 00 cc 00 cf 01 40 26 fe 17 a1 0f 74 07 [........@&....t.]
  | | | |         18ca: 35 03 5b 01 a2 00 8b 00 8e 00 7d 01 02 06 47 05 [5.[.......}...G.]
  | | | |         18da: 16 06 b0 1a c7 32 68 44 92 5a a4 69 dc 36 3d 23 [.....2hD.Z.i.6=#]
  | | | |         [snip 476 bytes]
  | | | | 44) Canon_0x4037 = ........).
  | | | |     - Tag 0x4037 (24 bytes, undef[24]):
  | | | |         1ac6: 80 02 aa 01 00 00 00 00 02 00 00 00 f4 00 10 01 [................]
  | | | |         1ad6: 29 00 00 00 0a 00 00 00                         [).......]
  | | | | 45) Canon_0x4039 = 65 127 227 159 107 245 213 225 182 12 162 178 240 81 160 41
  | | | |     - Tag 0x4039 (16 bytes, int8u[16]):
  | | | |         1ade: 41 7f e3 9f 6b f5 d5 e1 b6 0c a2 b2 f0 51 a0 29 [A...k........Q.)]
  | | | | 46) Canon_0x403c = 12 1 24
  | | | |     - Tag 0x403c (12 bytes, int32u[3]):
  | | | |         1aee: 0c 00 00 00 01 00 00 00 18 00 00 00             [............]
  | | GPSInfo (SubDirectory) -->
  | | - Tag 'CMT4' (1808 bytes):
  | |     1b10: 49 49 2a 00 08 00 00 00 01 00 00 00 01 00 04 00 [II*.............]
  | |     1b20: 00 00 02 03 00 00 00 00 00 00 00 00 00 00 00 00 [................]
  | |     1b30: 00 00 00 00 00 00 00 00 00 00 00 00 00 00 00 00 [................]
  | |     1b40: 00 00 00 00 00 00 00 00 00 00 00 00 00 00 00 00 [................]
  | |     1b50: 00 00 00 00 00 00 00 00 00 00 00 00 00 00 00 00 [................]
  | |     [snip 1728 bytes]
  | | + [TIFF directory]
  | | | ExifByteOrder = II
  | | | + [IFD0 directory with 1 entries]
  | | | | 0)  GPSVersionID = 2 3 0 0
  | | | |     - Tag 0x0000 (4 bytes, int8u[4]):
  | | | |         1b22: 02 03 00 00                                     [....]
  | | ThumbnailImage = .x4]............................................................[snip]
  | | - Tag 'THMB' (13424 bytes):
  | |     2228: 00 00 00 00 00 a0 00 78 00 00 34 5d 00 01 00 00 [.......x..4]....]
  | |     2238: ff d8 ff db 00 84 00 01 01 01 01 01 01 01 01 01 [................]
  | |     2248: 01 01 01 01 01 01 02 01 01 01 01 01 02 02 02 02 [................]
  | |     2258: 02 03 03 03 03 03 03 03 03 03 04 04 04 03 03 04 [................]
  | |     2268: 03 03 03 04 05 04 04 05 05 05 05 05 03 04 05 06 [................]
  | |     [snip 13344 bytes]
  | MovieHeader (SubDirectory) -->
  | - Tag 'mvhd' (100 bytes):
  |     56a0: 00 00 00 00 d6 b3 11 9a d6 b3 11 9a 00 00 00 01 [................]
  |     56b0: 00 00 00 01 00 01 00 00 01 00 00 00 00 00 00 00 [................]
  |     56c0: 00 00 00 00 00 01 00 00 00 00 00 00 00 00 00 00 [................]
  |     56d0: 00 00 00 00 00 01 00 00 00 00 00 00 00 00 00 00 [................]
  |     56e0: 00 00 00 00 40 00 00 00 00 00 00 00 00 00 00 00 [....@...........]
  |     [snip 20 bytes]
  | + [BinaryData directory, 100 bytes]
  | | MovieHeaderVersion = 0
  | | - Tag 0x0000 (1 bytes, int8u[1]):
  | |     56a0: 00                                              [.]
  | | CreateDate = 3602059674
  | | - Tag 0x0001 (4 bytes, int32u[1]):
  | |     56a4: d6 b3 11 9a                                     [....]
  | | ModifyDate = 3602059674
  | | - Tag 0x0002 (4 bytes, int32u[1]):
  | |     56a8: d6 b3 11 9a                                     [....]
  | | TimeScale = 1
  | | - Tag 0x0003 (4 bytes, int32u[1]):
  | |     56ac: 00 00 00 01                                     [....]
  | | Duration = 1
  | | - Tag 0x0004 (4 bytes, int32u[1]):
  | |     56b0: 00 00 00 01                                     [....]
  | | PreferredRate = 65536
  | | - Tag 0x0005 (4 bytes, int32u[1]):
  | |     56b4: 00 01 00 00                                     [....]
  | | PreferredVolume = 256
  | | - Tag 0x0006 (2 bytes, int16u[1]):
  | |     56b8: 01 00                                           [..]
  | | MatrixStructure = 1 0 0 0 1 0 0 0 16384
  | | - Tag 0x0009 (36 bytes, fixed32s[9]):
  | |     56c4: 00 01 00 00 00 00 00 00 00 00 00 00 00 00 00 00 [................]
  | |     56d4: 00 01 00 00 00 00 00 00 00 00 00 00 00 00 00 00 [................]
  | |     56e4: 40 00 00 00                                     [@...]
  | | PreviewTime = 0
  | | - Tag 0x0012 (4 bytes, int32u[1]):
  | |     56e8: 00 00 00 00                                     [....]
  | | PreviewDuration = 0
  | | - Tag 0x0013 (4 bytes, int32u[1]):
  | |     56ec: 00 00 00 00                                     [....]
  | | PosterTime = 0
  | | - Tag 0x0014 (4 bytes, int32u[1]):
  | |     56f0: 00 00 00 00                                     [....]
  | | SelectionTime = 0
  | | - Tag 0x0015 (4 bytes, int32u[1]):
  | |     56f4: 00 00 00 00                                     [....]
  | | SelectionDuration = 0
  | | - Tag 0x0016 (4 bytes, int32u[1]):
  | |     56f8: 00 00 00 00                                     [....]
  | | CurrentTime = 0
  | | - Tag 0x0017 (4 bytes, int32u[1]):
  | |     56fc: 00 00 00 00                                     [....]
  | | NextTrackID = 5
  | | - Tag 0x0018 (4 bytes, int32u[1]):
  | |     5700: 00 00 00 05                                     [....]
  | Track (SubDirectory) -->
  | - Tag 'trak' (476 bytes):
  |     570c: 00 00 00 5c 74 6b 68 64 00 00 00 07 d6 b3 11 9a [...\tkhd........]
  |     571c: d6 b3 11 9a 00 00 00 01 00 00 00 00 00 00 00 01 [................]
  |     572c: 00 00 00 00 00 00 00 00 00 00 00 00 00 00 00 00 [................]
  |     573c: 00 01 00 00 00 00 00 00 00 00 00 00 00 00 00 00 [................]
  |     574c: 00 01 00 00 00 00 00 00 00 00 00 00 00 00 00 00 [................]
  |     [snip 396 bytes]
  | + [Track directory]
  | | TrackHeader (SubDirectory) -->
  | | - Tag 'tkhd' (84 bytes):
  | |     5714: 00 00 00 07 d6 b3 11 9a d6 b3 11 9a 00 00 00 01 [................]
  | |     5724: 00 00 00 00 00 00 00 01 00 00 00 00 00 00 00 00 [................]
  | |     5734: 00 00 00 00 00 00 00 00 00 01 00 00 00 00 00 00 [................]
  | |     5744: 00 00 00 00 00 00 00 00 00 01 00 00 00 00 00 00 [................]
  | |     5754: 00 00 00 00 00 00 00 00 40 00 00 00 17 70 00 00 [........@....p..]
  | |     5764: 0f a0 00 00                                     [....]
  | | + [BinaryData directory, 84 bytes]
  | | | TrackHeaderVersion = 0
  | | | - Tag 0x0000 (1 bytes, int8u[1]):
  | | |     5714: 00                                              [.]
  | | | TrackCreateDate = 3602059674
  | | | - Tag 0x0001 (4 bytes, int32u[1]):
  | | |     5718: d6 b3 11 9a                                     [....]
  | | | TrackModifyDate = 3602059674
  | | | - Tag 0x0002 (4 bytes, int32u[1]):
  | | |     571c: d6 b3 11 9a                                     [....]
  | | | TrackID = 1
  | | | - Tag 0x0003 (4 bytes, int32u[1]):
  | | |     5720: 00 00 00 01                                     [....]
  | | | TrackDuration = 1
  | | | - Tag 0x0005 (4 bytes, int32u[1]):
  | | |     5728: 00 00 00 01                                     [....]
  | | | TrackLayer = 0
  | | | - Tag 0x0008 (2 bytes, int16u[1]):
  | | |     5734: 00 00                                           [..]
  | | | TrackVolume = 0
  | | | - Tag 0x0009 (2 bytes, int16u[1]):
  | | |     5738: 00 00                                           [..]
  | | | MatrixStructure = 1 0 0 0 1 0 0 0 16384
  | | | - Tag 0x000a (36 bytes, fixed32s[9]):
  | | |     573c: 00 01 00 00 00 00 00 00 00 00 00 00 00 00 00 00 [................]
  | | |     574c: 00 01 00 00 00 00 00 00 00 00 00 00 00 00 00 00 [................]
  | | |     575c: 40 00 00 00                                     [@...]
  | | | ImageWidth = 393216000
  | | | - Tag 0x0013 (4 bytes, int32u[1]):
  | | |     5760: 17 70 00 00                                     [.p..]
  | | | ImageHeight = 262144000
  | | | - Tag 0x0014 (4 bytes, int32u[1]):
  | | |     5764: 0f a0 00 00                                     [....]
  | | Media (SubDirectory) -->
  | | - Tag 'mdia' (376 bytes):
  | |     5770: 00 00 00 20 6d 64 68 64 00 00 00 00 d6 b3 11 9a [... mdhd........]
  | |     5780: d6 b3 11 9a 00 00 00 01 00 00 00 01 15 c7 00 00 [................]
  | |     5790: 00 00 00 21 68 64 6c 72 00 00 00 00 00 00 00 00 [...!hdlr........]
  | |     57a0: 76 69 64 65 00 00 00 00 00 00 00 00 00 00 00 00 [vide............]
  | |     57b0: 00 00 00 01 37 6d 69 6e 66 00 00 00 14 76 6d 68 [....7minf....vmh]
  | |     [snip 296 bytes]
  | | + [Media directory]
  | | | MediaHeader (SubDirectory) -->
  | | | - Tag 'mdhd' (24 bytes):
  | | |     5778: 00 00 00 00 d6 b3 11 9a d6 b3 11 9a 00 00 00 01 [................]
  | | |     5788: 00 00 00 01 15 c7 00 00                         [........]
  | | | + [BinaryData directory, 24 bytes]
  | | | | MediaHeaderVersion = 0
  | | | | - Tag 0x0000 (4 bytes, int32u[1]):
  | | | |     5778: 00 00 00 00                                     [....]
  | | | | MediaCreateDate = 3602059674
  | | | | - Tag 0x0001 (4 bytes, int32u[1]):
  | | | |     577c: d6 b3 11 9a                                     [....]
  | | | | MediaModifyDate = 3602059674
  | | | | - Tag 0x0002 (4 bytes, int32u[1]):
  | | | |     5780: d6 b3 11 9a                                     [....]
  | | | | MediaTimeScale = 1
  | | | | - Tag 0x0003 (4 bytes, int32u[1]):
  | | | |     5784: 00 00 00 01                                     [....]
  | | | | MediaDuration = 1
  | | | | - Tag 0x0004 (4 bytes, int32u[1]):
  | | | |     5788: 00 00 00 01                                     [....]
  | | | | MediaLanguageCode = 5575
  | | | | - Tag 0x0005 (2 bytes, int16u[1]):
  | | | |     578c: 15 c7                                           [..]
  | | | Handler (SubDirectory) -->
  | | | - Tag 'hdlr' (25 bytes):
  | | |     5798: 00 00 00 00 00 00 00 00 76 69 64 65 00 00 00 00 [........vide....]
  | | |     57a8: 00 00 00 00 00 00 00 00 00                      [.........]
  | | | + [BinaryData directory, 25 bytes]
  | | | | HandlerClass = 
  | | | | - Tag 0x0004 (4 bytes, undef[4]):
  | | | |     579c: 00 00 00 00                                     [....]
  | | | | HandlerType = vide
  | | | | - Tag 0x0008 (4 bytes, undef[4]):
  | | | |     57a0: 76 69 64 65                                     [vide]
  | | | | HandlerVendorID = 
  | | | | - Tag 0x000c (4 bytes, undef[4]):
  | | | |     57a4: 00 00 00 00                                     [....]
  | | | | HandlerDescription = 
  | | | | - Tag 0x0018 (1 bytes, string[1]):
  | | | |     57b0: 00                                              [.]
  | | | MediaInfo (SubDirectory) -->
  | | | - Tag 'minf' (303 bytes):
  | | |     57b9: 00 00 00 14 76 6d 68 64 00 00 00 01 00 00 00 00 [....vmhd........]
  | | |     57c9: 00 00 00 00 00 00 00 24 64 69 6e 66 00 00 00 1c [.......$dinf....]
  | | |     57d9: 64 72 65 66 00 00 00 00 00 00 00 01 00 00 00 0c [dref............]
  | | |     57e9: 75 72 6c 20 00 00 00 01 00 00 00 f7 73 74 62 6c [url ........stbl]
  | | |     57f9: 00 00 00 80 73 74 73 64 00 00 00 00 00 00 00 01 [....stsd........]
  | | |     [snip 223 bytes]
  | | | + [MediaInfo directory]
  | | | | VideoHeader (SubDirectory) -->
  | | | | - Tag 'vmhd' (12 bytes):
  | | | |     57c1: 00 00 00 01 00 00 00 00 00 00 00 00             [............]
  | | | | + [BinaryData directory, 12 bytes]
  | | | | | GraphicsMode = 0
  | | | | | - Tag 0x0002 (2 bytes, int16u[1]):
  | | | | |     57c5: 00 00                                           [..]
  | | | | | OpColor = 0 0 0
  | | | | | - Tag 0x0003 (6 bytes, int16u[3]):
  | | | | |     57c7: 00 00 00 00 00 00                               [......]
  | | | | DataInfo (SubDirectory) -->
  | | | | - Tag 'dinf' (28 bytes):
  | | | |     57d5: 00 00 00 1c 64 72 65 66 00 00 00 00 00 00 00 01 [....dref........]
  | | | |     57e5: 00 00 00 0c 75 72 6c 20 00 00 00 01             [....url ....]
  | | | | + [DataInfo directory]
  | | | | | DataRef (SubDirectory) -->
  | | | | | - Tag 'dref' (20 bytes):
  | | | | |     57dd: 00 00 00 00 00 00 00 01 00 00 00 0c 75 72 6c 20 [............url ]
  | | | | |     57ed: 00 00 00 01                                     [....]
  | | | | | + [DataRef directory]
  | | | | | | URL = .
  | | | | | | - Tag 'url ' (4 bytes, undef):
  | | | | | |     57ed: 00 00 00 01                                     [....]
  | | | | SampleTable (SubDirectory) -->
  | | | | - Tag 'stbl' (239 bytes):
  | | | |     57f9: 00 00 00 80 73 74 73 64 00 00 00 00 00 00 00 01 [....stsd........]
  | | | |     5809: 00 00 00 70 43 52 41 57 00 00 00 00 00 00 00 01 [...pCRAW........]
  | | | |     5819: 00 00 00 00 00 00 00 00 00 00 00 00 00 00 00 00 [................]
  | | | |     5829: 17 70 0f a0 00 48 00 00 00 48 00 00 00 00 00 00 [.p...H...H......]
  | | | |     5839: 00 01 00 00 00 00 00 00 00 00 00 00 00 00 00 00 [................]
  | | | |     [snip 159 bytes]
  | | | | + [SampleTable directory]
  | | | | | VideoSampleDesc (SubDirectory) -->
  | | | | | - Tag 'stsd' (120 bytes):
  | | | | |     5801: 00 00 00 00 00 00 00 01 00 00 00 70 43 52 41 57 [...........pCRAW]
  | | | | |     5811: 00 00 00 00 00 00 00 01 00 00 00 00 00 00 00 00 [................]
  | | | | |     5821: 00 00 00 00 00 00 00 00 17 70 0f a0 00 48 00 00 [.........p...H..]
  | | | | |     5831: 00 48 00 00 00 00 00 00 00 01 00 00 00 00 00 00 [.H..............]
  | | | | |     5841: 00 00 00 00 00 00 00 00 00 00 00 00 00 00 00 00 [................]
  | | | | |     [snip 40 bytes]
  | | | | | + [BinaryData directory, 98 bytes]
  | | | | | | CompressorID = CRAW
  | | | | | | - Tag 0x0002 (4 bytes, string[4]):
  | | | | | |     580d: 43 52 41 57                                     [CRAW]
  | | | | | | VendorID = 
  | | | | | | - Tag 0x000a (4 bytes, string[4]):
  | | | | | |     581d: 00 00 00 00                                     [....]
  | | | | | | SourceImageWidth = 6000
  | | | | | | - Tag 0x0010 (2 bytes, int16u[1]):
  | | | | | |     5829: 17 70                                           [.p]
  | | | | | | SourceImageHeight = 4000
  | | | | | | - Tag 0x0011 (2 bytes, int16u[1]):
  | | | | | |     582b: 0f a0                                           [..]
  | | | | | | XResolution = 72
  | | | | | | - Tag 0x0012 (4 bytes, fixed32u[1]):
  | | | | | |     582d: 00 48 00 00                                     [.H..]
  | | | | | | YResolution = 72
  | | | | | | - Tag 0x0014 (4 bytes, fixed32u[1]):
  | | | | | |     5831: 00 48 00 00                                     [.H..]
  | | | | | | CompressorName = 
  | | | | | | - Tag 0x0019 (32 bytes, string[32]):
  | | | | | |     583b: 00 00 00 00 00 00 00 00 00 00 00 00 00 00 00 00 [................]
  | | | | | |     584b: 00 00 00 00 00 00 00 00 00 00 00 00 00 00 00 00 [................]
  | | | | | | BitDepth = 24
  | | | | | | - Tag 0x0029 (2 bytes, int16u[1]):
  | | | | | |     585b: 00 18                                           [..]
  | | | | | + [VideoSampleDesc directory]
  | | | | | | JPEGInfo = 
  | | | | | | - Tag 'JPEG' (4 bytes):
  | | | | | |     586b: 00 00 00 00                                     [....]
  | | | | | | Unknown_free = 
  | | | | | | - Tag 'free' (2 bytes):
  | | | | | |     5877: 00 00                                           [..]
  | | | | | VideoFrameRate = ...
  | | | | | - Tag 'stts' (16 bytes, undef):
  | | | | |     5881: 00 00 00 00 00 00 00 01 00 00 00 01 00 00 00 01 [................]
  | | | | | SampleToChunk = ....
  | | | | | - Tag 'stsc' (20 bytes):
  | | | | |     5899: 00 00 00 00 00 00 00 01 00 00 00 01 00 00 00 01 [................]
  | | | | |     58a9: 00 00 00 01                                     [....]
  | | | | | SampleSizes = +[..
  | | | | | - Tag 'stsz' (12 bytes):
  | | | | |     58b5: 00 00 00 00 00 2b 5b 8e 00 00 00 01             [.....+[.....]
  | | | | | Unknown_free = 
  | | | | | - Tag 'free' (7 bytes):
  | | | | |     58c9: 00 00 00 00 00 00 00                            [.......]
  | | | | | ChunkOffset64 = ..CG
  | | | | | - Tag 'co64' (16 bytes):
  | | | | |     58d8: 00 00 00 00 00 00 00 01 00 00 00 00 00 06 43 47 [..............CG]
---- Extract Embedded ----
Track1 Type='JPEG' Format='', Sample 1 of 1 (2841486 bytes)
   64347: ff d8 ff db 00 84 00 06 04 04 06 04 04 06 06 04 [................]
   64357: 06 06 06 06 08 0a 11 0a 0a 08 08 0a 13 0f 0f 0c [................]
   64367: 11 17 15 19 17 17 15 17 15 19 1d 23 1f 19 1b 23 [...........#...#]
   64377: 1b 1b 17 1f 2c 1f 23 25 28 2a 2a 2a 19 1f 2c 30 [....,.#%(***..,0]
   64387: 2c 28 30 23 28 2a 28 01 06 06 06 0a 08 0a 13 0a [,(0#(*(.........]
    [snip 2841406 bytes]
SampleTime = 0
SampleDuration = 1
JpgFromRaw = .........................................#...#....,.#%(***..,0,(0#(*(.....[snip]
- Tag 'JPEG' (2841486 bytes):
   64347: ff d8 ff db 00 84 00 06 04 04 06 04 04 06 06 04 [................]
   64357: 06 06 06 06 08 0a 11 0a 0a 08 08 0a 13 0f 0f 0c [................]
   64367: 11 17 15 19 17 17 15 17 15 19 1d 23 1f 19 1b 23 [...........#...#]
   64377: 1b 1b 17 1f 2c 1f 23 25 28 2a 2a 2a 19 1f 2c 30 [....,.#%(***..,0]
   64387: 2c 28 30 23 28 2a 28 01 06 06 06 0a 08 0a 13 0a [,(0#(*(.........]
    [snip 2841406 bytes]
--------------------------
  | Track (SubDirectory) -->
  | - Tag 'trak' (576 bytes):
  |     58f0: 00 00 00 5c 74 6b 68 64 00 00 00 07 d6 b3 11 9a [...\tkhd........]
  |     5900: d6 b3 11 9a 00 00 00 02 00 00 00 00 00 00 00 01 [................]
  |     5910: 00 00 00 00 00 00 00 00 00 00 00 00 00 00 00 00 [................]
  |     5920: 00 01 00 00 00 00 00 00 00 00 00 00 00 00 00 00 [................]
  |     5930: 00 01 00 00 00 00 00 00 00 00 00 00 00 00 00 00 [................]
  |     [snip 496 bytes]
  | + [Track directory]
  | | TrackHeader (SubDirectory) -->
  | | - Tag 'tkhd' (84 bytes):
  | |     58f8: 00 00 00 07 d6 b3 11 9a d6 b3 11 9a 00 00 00 02 [................]
  | |     5908: 00 00 00 00 00 00 00 01 00 00 00 00 00 00 00 00 [................]
  | |     5918: 00 00 00 00 00 00 00 00 00 01 00 00 00 00 00 00 [................]
  | |     5928: 00 00 00 00 00 00 00 00 00 01 00 00 00 00 00 00 [................]
  | |     5938: 00 00 00 00 00 00 00 00 40 00 00 00 06 58 00 00 [........@....X..]
  | |     5948: 04 38 00 00                                     [.8..]
  | | + [BinaryData directory, 84 bytes]
  | | | TrackHeaderVersion = 0
  | | | - Tag 0x0000 (1 bytes, int8u[1]):
  | | |     58f8: 00                                              [.]
  | | | TrackCreateDate = 3602059674
  | | | - Tag 0x0001 (4 bytes, int32u[1]):
  | | |     58fc: d6 b3 11 9a                                     [....]
  | | | TrackModifyDate = 3602059674
  | | | - Tag 0x0002 (4 bytes, int32u[1]):
  | | |     5900: d6 b3 11 9a                                     [....]
  | | | TrackID = 2
  | | | - Tag 0x0003 (4 bytes, int32u[1]):
  | | |     5904: 00 00 00 02                                     [....]
  | | | TrackDuration = 1
  | | | - Tag 0x0005 (4 bytes, int32u[1]):
  | | |     590c: 00 00 00 01                                     [....]
  | | | TrackLayer = 0
  | | | - Tag 0x0008 (2 bytes, int16u[1]):
  | | |     5918: 00 00                                           [..]
  | | | TrackVolume = 0
  | | | - Tag 0x0009 (2 bytes, int16u[1]):
  | | |     591c: 00 00                                           [..]
  | | | MatrixStructure = 1 0 0 0 1 0 0 0 16384
  | | | - Tag 0x000a (36 bytes, fixed32s[9]):
  | | |     5920: 00 01 00 00 00 00 00 00 00 00 00 00 00 00 00 00 [................]
  | | |     5930: 00 01 00 00 00 00 00 00 00 00 00 00 00 00 00 00 [................]
  | | |     5940: 40 00 00 00                                     [@...]
  | | | ImageWidth = 106430464
  | | | - Tag 0x0013 (4 bytes, int32u[1]):
  | | |     5944: 06 58 00 00                                     [.X..]
  | | | ImageHeight = 70778880
  | | | - Tag 0x0014 (4 bytes, int32u[1]):
  | | |     5948: 04 38 00 00                                     [.8..]
  | | Media (SubDirectory) -->
  | | - Tag 'mdia' (476 bytes):
  | |     5954: 00 00 00 20 6d 64 68 64 00 00 00 00 d6 b3 11 9a [... mdhd........]
  | |     5964: d6 b3 11 9a 00 00 00 01 00 00 00 01 15 c7 00 00 [................]
  | |     5974: 00 00 00 21 68 64 6c 72 00 00 00 00 00 00 00 00 [...!hdlr........]
  | |     5984: 76 69 64 65 00 00 00 00 00 00 00 00 00 00 00 00 [vide............]
  | |     5994: 00 00 00 01 9b 6d 69 6e 66 00 00 00 14 76 6d 68 [.....minf....vmh]
  | |     [snip 396 bytes]
  | | + [Media directory]
  | | | MediaHeader (SubDirectory) -->
  | | | - Tag 'mdhd' (24 bytes):
  | | |     595c: 00 00 00 00 d6 b3 11 9a d6 b3 11 9a 00 00 00 01 [................]
  | | |     596c: 00 00 00 01 15 c7 00 00                         [........]
  | | | + [BinaryData directory, 24 bytes]
  | | | | MediaHeaderVersion = 0
  | | | | - Tag 0x0000 (4 bytes, int32u[1]):
  | | | |     595c: 00 00 00 00                                     [....]
  | | | | MediaCreateDate = 3602059674
  | | | | - Tag 0x0001 (4 bytes, int32u[1]):
  | | | |     5960: d6 b3 11 9a                                     [....]
  | | | | MediaModifyDate = 3602059674
  | | | | - Tag 0x0002 (4 bytes, int32u[1]):
  | | | |     5964: d6 b3 11 9a                                     [....]
  | | | | MediaTimeScale = 1
  | | | | - Tag 0x0003 (4 bytes, int32u[1]):
  | | | |     5968: 00 00 00 01                                     [....]
  | | | | MediaDuration = 1
  | | | | - Tag 0x0004 (4 bytes, int32u[1]):
  | | | |     596c: 00 00 00 01                                     [....]
  | | | | MediaLanguageCode = 5575
  | | | | - Tag 0x0005 (2 bytes, int16u[1]):
  | | | |     5970: 15 c7                                           [..]
  | | | Handler (SubDirectory) -->
  | | | - Tag 'hdlr' (25 bytes):
  | | |     597c: 00 00 00 00 00 00 00 00 76 69 64 65 00 00 00 00 [........vide....]
  | | |     598c: 00 00 00 00 00 00 00 00 00                      [.........]
  | | | + [BinaryData directory, 25 bytes]
  | | | | HandlerClass = 
  | | | | - Tag 0x0004 (4 bytes, undef[4]):
  | | | |     5980: 00 00 00 00                                     [....]
  | | | | HandlerType = vide
  | | | | - Tag 0x0008 (4 bytes, undef[4]):
  | | | |     5984: 76 69 64 65                                     [vide]
  | | | | HandlerVendorID = 
  | | | | - Tag 0x000c (4 bytes, undef[4]):
  | | | |     5988: 00 00 00 00                                     [....]
  | | | | HandlerDescription = 
  | | | | - Tag 0x0018 (1 bytes, string[1]):
  | | | |     5994: 00                                              [.]
  | | | MediaInfo (SubDirectory) -->
  | | | - Tag 'minf' (403 bytes):
  | | |     599d: 00 00 00 14 76 6d 68 64 00 00 00 01 00 00 00 00 [....vmhd........]
  | | |     59ad: 00 00 00 00 00 00 00 24 64 69 6e 66 00 00 00 1c [.......$dinf....]
  | | |     59bd: 64 72 65 66 00 00 00 00 00 00 00 01 00 00 00 0c [dref............]
  | | |     59cd: 75 72 6c 20 00 00 00 01 00 00 01 5b 73 74 62 6c [url .......[stbl]
  | | |     59dd: 00 00 00 e4 73 74 73 64 00 00 00 00 00 00 00 01 [....stsd........]
  | | |     [snip 323 bytes]
  | | | + [MediaInfo directory]
  | | | | VideoHeader (SubDirectory) -->
  | | | | - Tag 'vmhd' (12 bytes):
  | | | |     59a5: 00 00 00 01 00 00 00 00 00 00 00 00             [............]
  | | | | + [BinaryData directory, 12 bytes]
  | | | | | GraphicsMode = 0
  | | | | | - Tag 0x0002 (2 bytes, int16u[1]):
  | | | | |     59a9: 00 00                                           [..]
  | | | | | OpColor = 0 0 0
  | | | | | - Tag 0x0003 (6 bytes, int16u[3]):
  | | | | |     59ab: 00 00 00 00 00 00                               [......]
  | | | | DataInfo (SubDirectory) -->
  | | | | - Tag 'dinf' (28 bytes):
  | | | |     59b9: 00 00 00 1c 64 72 65 66 00 00 00 00 00 00 00 01 [....dref........]
  | | | |     59c9: 00 00 00 0c 75 72 6c 20 00 00 00 01             [....url ....]
  | | | | + [DataInfo directory]
  | | | | | DataRef (SubDirectory) -->
  | | | | | - Tag 'dref' (20 bytes):
  | | | | |     59c1: 00 00 00 00 00 00 00 01 00 00 00 0c 75 72 6c 20 [............url ]
  | | | | |     59d1: 00 00 00 01                                     [....]
  | | | | | + [DataRef directory]
  | | | | | | URL = .
  | | | | | | - Tag 'url ' (4 bytes, undef):
  | | | | | |     59d1: 00 00 00 01                                     [....]
  | | | | SampleTable (SubDirectory) -->
  | | | | - Tag 'stbl' (339 bytes):
  | | | |     59dd: 00 00 00 e4 73 74 73 64 00 00 00 00 00 00 00 01 [....stsd........]
  | | | |     59ed: 00 00 00 d4 43 52 41 57 00 00 00 00 00 00 00 01 [....CRAW........]
  | | | |     59fd: 00 00 00 00 00 00 00 00 00 00 00 00 00 00 00 00 [................]
  | | | |     5a0d: 06 58 04 38 00 48 00 00 00 48 00 00 00 00 00 00 [.X.8.H...H......]
  | | | |     5a1d: 00 01 00 00 00 00 00 00 00 00 00 00 00 00 00 00 [................]
  | | | |     [snip 259 bytes]
  | | | | + [SampleTable directory]
  | | | | | VideoSampleDesc (SubDirectory) -->
  | | | | | - Tag 'stsd' (220 bytes):
  | | | | |     59e5: 00 00 00 00 00 00 00 01 00 00 00 d4 43 52 41 57 [............CRAW]
  | | | | |     59f5: 00 00 00 00 00 00 00 01 00 00 00 00 00 00 00 00 [................]
  | | | | |     5a05: 00 00 00 00 00 00 00 00 06 58 04 38 00 48 00 00 [.........X.8.H..]
  | | | | |     5a15: 00 48 00 00 00 00 00 00 00 01 00 00 00 00 00 00 [.H..............]
  | | | | |     5a25: 00 00 00 00 00 00 00 00 00 00 00 00 00 00 00 00 [................]
  | | | | |     [snip 140 bytes]
  | | | | | + [BinaryData directory, 98 bytes]
  | | | | | | CompressorID = CRAW
  | | | | | | - Tag 0x0002 (4 bytes, string[4]):
  | | | | | |     59f1: 43 52 41 57                                     [CRAW]
  | | | | | | VendorID = 
  | | | | | | - Tag 0x000a (4 bytes, string[4]):
  | | | | | |     5a01: 00 00 00 00                                     [....]
  | | | | | | SourceImageWidth = 1624
  | | | | | | - Tag 0x0010 (2 bytes, int16u[1]):
  | | | | | |     5a0d: 06 58                                           [.X]
  | | | | | | SourceImageHeight = 1080
  | | | | | | - Tag 0x0011 (2 bytes, int16u[1]):
  | | | | | |     5a0f: 04 38                                           [.8]
  | | | | | | XResolution = 72
  | | | | | | - Tag 0x0012 (4 bytes, fixed32u[1]):
  | | | | | |     5a11: 00 48 00 00                                     [.H..]
  | | | | | | YResolution = 72
  | | | | | | - Tag 0x0014 (4 bytes, fixed32u[1]):
  | | | | | |     5a15: 00 48 00 00                                     [.H..]
  | | | | | | CompressorName = 
  | | | | | | - Tag 0x0019 (32 bytes, string[32]):
  | | | | | |     5a1f: 00 00 00 00 00 00 00 00 00 00 00 00 00 00 00 00 [................]
  | | | | | |     5a2f: 00 00 00 00 00 00 00 00 00 00 00 00 00 00 00 00 [................]
  | | | | | | BitDepth = 24
  | | | | | | - Tag 0x0029 (2 bytes, int16u[1]):
  | | | | | |     5a3f: 00 18                                           [..]
  | | | | | + [VideoSampleDesc directory]
  | | | | | | Unknown_CMP1 = .0..X.8.X.8.Ap........
  | | | | | | - Tag 'CMP1' (52 bytes):
  | | | | | |     5a4f: ff 00 00 30 01 00 00 00 00 00 06 58 00 00 04 38 [...0.......X...8]
  | | | | | |     5a5f: 00 00 06 58 00 00 04 38 0e 41 00 00 00 00 00 70 [...X...8.A.....p]
  | | | | | |     5a6f: 00 00 00 00 01 01 00 00 01 01 00 00 01 01 00 00 [................]
  | | | | | |     5a7f: 01 01 00 00                                     [....]
  | | | | | | CDI1 (SubDirectory) -->
  | | | | | | - Tag 'CDI1' (44 bytes):
  | | | | | |     5a8b: 00 00 00 00 00 00 00 28 49 41 44 31 00 00 00 00 [.......(IAD1....]
  | | | | | |     5a9b: 06 58 04 38 00 01 00 00 00 01 00 00 00 01 00 00 [.X.8............]
  | | | | | |     5aab: 06 54 04 37 00 00 00 00 06 57 04 37             [.T.7.....W.7]
  | | | | | | + [CDI1 directory]
  | | | | | | | Unknown_IAD1 = .X.8....T.7.W.7
  | | | | | | | - Tag 'IAD1' (32 bytes):
  | | | | | | |     5a97: 00 00 00 00 06 58 04 38 00 01 00 00 00 01 00 00 [.....X.8........]
  | | | | | | |     5aa7: 00 01 00 00 06 54 04 37 00 00 00 00 06 57 04 37 [.....T.7.....W.7]
  | | | | | | Unknown_free = 
  | | | | | | - Tag 'free' (2 bytes):
  | | | | | |     5abf: 00 00                                           [..]
  | | | | | VideoFrameRate = ...
  | | | | | - Tag 'stts' (16 bytes, undef):
  | | | | |     5ac9: 00 00 00 00 00 00 00 01 00 00 00 01 00 00 00 01 [................]
  | | | | | SampleToChunk = ....
  | | | | | - Tag 'stsc' (20 bytes):
  | | | | |     5ae1: 00 00 00 00 00 00 00 01 00 00 00 01 00 00 00 01 [................]
  | | | | |     5af1: 00 00 00 01                                     [....]
  | | | | | SampleSizes = ..p.
  | | | | | - Tag 'stsz' (12 bytes):
  | | | | |     5afd: 00 00 00 00 00 18 03 70 00 00 00 01             [.......p....]
  | | | | | Unknown_free = 
  | | | | | - Tag 'free' (7 bytes):
  | | | | |     5b11: 00 00 00 00 00 00 00                            [.......]
  | | | | | ChunkOffset64 = .1..
  | | | | | - Tag 'co64' (16 bytes):
  | | | | |     5b20: 00 00 00 00 00 00 00 01 00 00 00 00 00 31 9e d7 [.............1..]
  | Track (SubDirectory) -->
  | - Tag 'trak' (592 bytes):
  |     5b38: 00 00 00 5c 74 6b 68 64 00 00 00 07 d6 b3 11 9a [...\tkhd........]
  |     5b48: d6 b3 11 9a 00 00 00 03 00 00 00 00 00 00 00 01 [................]
  |     5b58: 00 00 00 00 00 00 00 00 00 00 00 00 00 00 00 00 [................]
  |     5b68: 00 01 00 00 00 00 00 00 00 00 00 00 00 00 00 00 [................]
  |     5b78: 00 01 00 00 00 00 00 00 00 00 00 00 00 00 00 00 [................]
  |     [snip 512 bytes]
  | + [Track directory]
  | | TrackHeader (SubDirectory) -->
  | | - Tag 'tkhd' (84 bytes):
  | |     5b40: 00 00 00 07 d6 b3 11 9a d6 b3 11 9a 00 00 00 03 [................]
  | |     5b50: 00 00 00 00 00 00 00 01 00 00 00 00 00 00 00 00 [................]
  | |     5b60: 00 00 00 00 00 00 00 00 00 01 00 00 00 00 00 00 [................]
  | |     5b70: 00 00 00 00 00 00 00 00 00 01 00 00 00 00 00 00 [................]
  | |     5b80: 00 00 00 00 00 00 00 00 40 00 00 00 18 90 00 00 [........@.......]
  | |     5b90: 0f d8 00 00                                     [....]
  | | + [BinaryData directory, 84 bytes]
  | | | TrackHeaderVersion = 0
  | | | - Tag 0x0000 (1 bytes, int8u[1]):
  | | |     5b40: 00                                              [.]
  | | | TrackCreateDate = 3602059674
  | | | - Tag 0x0001 (4 bytes, int32u[1]):
  | | |     5b44: d6 b3 11 9a                                     [....]
  | | | TrackModifyDate = 3602059674
  | | | - Tag 0x0002 (4 bytes, int32u[1]):
  | | |     5b48: d6 b3 11 9a                                     [....]
  | | | TrackID = 3
  | | | - Tag 0x0003 (4 bytes, int32u[1]):
  | | |     5b4c: 00 00 00 03                                     [....]
  | | | TrackDuration = 1
  | | | - Tag 0x0005 (4 bytes, int32u[1]):
  | | |     5b54: 00 00 00 01                                     [....]
  | | | TrackLayer = 0
  | | | - Tag 0x0008 (2 bytes, int16u[1]):
  | | |     5b60: 00 00                                           [..]
  | | | TrackVolume = 0
  | | | - Tag 0x0009 (2 bytes, int16u[1]):
  | | |     5b64: 00 00                                           [..]
  | | | MatrixStructure = 1 0 0 0 1 0 0 0 16384
  | | | - Tag 0x000a (36 bytes, fixed32s[9]):
  | | |     5b68: 00 01 00 00 00 00 00 00 00 00 00 00 00 00 00 00 [................]
  | | |     5b78: 00 01 00 00 00 00 00 00 00 00 00 00 00 00 00 00 [................]
  | | |     5b88: 40 00 00 00                                     [@...]
  | | | ImageWidth = 412090368
  | | | - Tag 0x0013 (4 bytes, int32u[1]):
  | | |     5b8c: 18 90 00 00                                     [....]
  | | | ImageHeight = 265814016
  | | | - Tag 0x0014 (4 bytes, int32u[1]):
  | | |     5b90: 0f d8 00 00                                     [....]
  | | Media (SubDirectory) -->
  | | - Tag 'mdia' (492 bytes):
  | |     5b9c: 00 00 00 20 6d 64 68 64 00 00 00 00 d6 b3 11 9a [... mdhd........]
  | |     5bac: d6 b3 11 9a 00 00 00 01 00 00 00 01 15 c7 00 00 [................]
  | |     5bbc: 00 00 00 21 68 64 6c 72 00 00 00 00 00 00 00 00 [...!hdlr........]
  | |     5bcc: 76 69 64 65 00 00 00 00 00 00 00 00 00 00 00 00 [vide............]
  | |     5bdc: 00 00 00 01 ab 6d 69 6e 66 00 00 00 14 76 6d 68 [.....minf....vmh]
  | |     [snip 412 bytes]
  | | + [Media directory]
  | | | MediaHeader (SubDirectory) -->
  | | | - Tag 'mdhd' (24 bytes):
  | | |     5ba4: 00 00 00 00 d6 b3 11 9a d6 b3 11 9a 00 00 00 01 [................]
  | | |     5bb4: 00 00 00 01 15 c7 00 00                         [........]
  | | | + [BinaryData directory, 24 bytes]
  | | | | MediaHeaderVersion = 0
  | | | | - Tag 0x0000 (4 bytes, int32u[1]):
  | | | |     5ba4: 00 00 00 00                                     [....]
  | | | | MediaCreateDate = 3602059674
  | | | | - Tag 0x0001 (4 bytes, int32u[1]):
  | | | |     5ba8: d6 b3 11 9a                                     [....]
  | | | | MediaModifyDate = 3602059674
  | | | | - Tag 0x0002 (4 bytes, int32u[1]):
  | | | |     5bac: d6 b3 11 9a                                     [....]
  | | | | MediaTimeScale = 1
  | | | | - Tag 0x0003 (4 bytes, int32u[1]):
  | | | |     5bb0: 00 00 00 01                                     [....]
  | | | | MediaDuration = 1
  | | | | - Tag 0x0004 (4 bytes, int32u[1]):
  | | | |     5bb4: 00 00 00 01                                     [....]
  | | | | MediaLanguageCode = 5575
  | | | | - Tag 0x0005 (2 bytes, int16u[1]):
  | | | |     5bb8: 15 c7                                           [..]
  | | | Handler (SubDirectory) -->
  | | | - Tag 'hdlr' (25 bytes):
  | | |     5bc4: 00 00 00 00 00 00 00 00 76 69 64 65 00 00 00 00 [........vide....]
  | | |     5bd4: 00 00 00 00 00 00 00 00 00                      [.........]
  | | | + [BinaryData directory, 25 bytes]
  | | | | HandlerClass = 
  | | | | - Tag 0x0004 (4 bytes, undef[4]):
  | | | |     5bc8: 00 00 00 00                                     [....]
  | | | | HandlerType = vide
  | | | | - Tag 0x0008 (4 bytes, undef[4]):
  | | | |     5bcc: 76 69 64 65                                     [vide]
  | | | | HandlerVendorID = 
  | | | | - Tag 0x000c (4 bytes, undef[4]):
  | | | |     5bd0: 00 00 00 00                                     [....]
  | | | | HandlerDescription = 
  | | | | - Tag 0x0018 (1 bytes, string[1]):
  | | | |     5bdc: 00                                              [.]
  | | | MediaInfo (SubDirectory) -->
  | | | - Tag 'minf' (419 bytes):
  | | |     5be5: 00 00 00 14 76 6d 68 64 00 00 00 01 00 00 00 00 [....vmhd........]
  | | |     5bf5: 00 00 00 00 00 00 00 24 64 69 6e 66 00 00 00 1c [.......$dinf....]
  | | |     5c05: 64 72 65 66 00 00 00 00 00 00 00 01 00 00 00 0c [dref............]
  | | |     5c15: 75 72 6c 20 00 00 00 01 00 00 01 6b 73 74 62 6c [url .......kstbl]
  | | |     5c25: 00 00 00 f4 73 74 73 64 00 00 00 00 00 00 00 01 [....stsd........]
  | | |     [snip 339 bytes]
  | | | + [MediaInfo directory]
  | | | | VideoHeader (SubDirectory) -->
  | | | | - Tag 'vmhd' (12 bytes):
  | | | |     5bed: 00 00 00 01 00 00 00 00 00 00 00 00             [............]
  | | | | + [BinaryData directory, 12 bytes]
  | | | | | GraphicsMode = 0
  | | | | | - Tag 0x0002 (2 bytes, int16u[1]):
  | | | | |     5bf1: 00 00                                           [..]
  | | | | | OpColor = 0 0 0
  | | | | | - Tag 0x0003 (6 bytes, int16u[3]):
  | | | | |     5bf3: 00 00 00 00 00 00                               [......]
  | | | | DataInfo (SubDirectory) -->
  | | | | - Tag 'dinf' (28 bytes):
  | | | |     5c01: 00 00 00 1c 64 72 65 66 00 00 00 00 00 00 00 01 [....dref........]
  | | | |     5c11: 00 00 00 0c 75 72 6c 20 00 00 00 01             [....url ....]
  | | | | + [DataInfo directory]
  | | | | | DataRef (SubDirectory) -->
  | | | | | - Tag 'dref' (20 bytes):
  | | | | |     5c09: 00 00 00 00 00 00 00 01 00 00 00 0c 75 72 6c 20 [............url ]
  | | | | |     5c19: 00 00 00 01                                     [....]
  | | | | | + [DataRef directory]
  | | | | | | URL = .
  | | | | | | - Tag 'url ' (4 bytes, undef):
  | | | | | |     5c19: 00 00 00 01                                     [....]
  | | | | SampleTable (SubDirectory) -->
  | | | | - Tag 'stbl' (355 bytes):
  | | | |     5c25: 00 00 00 f4 73 74 73 64 00 00 00 00 00 00 00 01 [....stsd........]
  | | | |     5c35: 00 00 00 e4 43 52 41 57 00 00 00 00 00 00 00 01 [....CRAW........]
  | | | |     5c45: 00 00 00 00 00 00 00 00 00 00 00 00 00 00 00 00 [................]
  | | | |     5c55: 18 90 0f d8 00 48 00 00 00 48 00 00 00 00 00 00 [.....H...H......]
  | | | |     5c65: 00 01 00 00 00 00 00 00 00 00 00 00 00 00 00 00 [................]
  | | | |     [snip 275 bytes]
  | | | | + [SampleTable directory]
  | | | | | VideoSampleDesc (SubDirectory) -->
  | | | | | - Tag 'stsd' (236 bytes):
  | | | | |     5c2d: 00 00 00 00 00 00 00 01 00 00 00 e4 43 52 41 57 [............CRAW]
  | | | | |     5c3d: 00 00 00 00 00 00 00 01 00 00 00 00 00 00 00 00 [................]
  | | | | |     5c4d: 00 00 00 00 00 00 00 00 18 90 0f d8 00 48 00 00 [.............H..]
  | | | | |     5c5d: 00 48 00 00 00 00 00 00 00 01 00 00 00 00 00 00 [.H..............]
  | | | | |     5c6d: 00 00 00 00 00 00 00 00 00 00 00 00 00 00 00 00 [................]
  | | | | |     [snip 156 bytes]
  | | | | | + [BinaryData directory, 98 bytes]
  | | | | | | CompressorID = CRAW
  | | | | | | - Tag 0x0002 (4 bytes, string[4]):
  | | | | | |     5c39: 43 52 41 57                                     [CRAW]
  | | | | | | VendorID = 
  | | | | | | - Tag 0x000a (4 bytes, string[4]):
  | | | | | |     5c49: 00 00 00 00                                     [....]
  | | | | | | SourceImageWidth = 6288
  | | | | | | - Tag 0x0010 (2 bytes, int16u[1]):
  | | | | | |     5c55: 18 90                                           [..]
  | | | | | | SourceImageHeight = 4056
  | | | | | | - Tag 0x0011 (2 bytes, int16u[1]):
  | | | | | |     5c57: 0f d8                                           [..]
  | | | | | | XResolution = 72
  | | | | | | - Tag 0x0012 (4 bytes, fixed32u[1]):
  | | | | | |     5c59: 00 48 00 00                                     [.H..]
  | | | | | | YResolution = 72
  | | | | | | - Tag 0x0014 (4 bytes, fixed32u[1]):
  | | | | | |     5c5d: 00 48 00 00                                     [.H..]
  | | | | | | CompressorName = 
  | | | | | | - Tag 0x0019 (32 bytes, string[32]):
  | | | | | |     5c67: 00 00 00 00 00 00 00 00 00 00 00 00 00 00 00 00 [................]
  | | | | | |     5c77: 00 00 00 00 00 00 00 00 00 00 00 00 00 00 00 00 [................]
  | | | | | | BitDepth = 24
  | | | | | | - Tag 0x0029 (2 bytes, int16u[1]):
  | | | | | |     5c87: 00 18                                           [..]
  | | | | | + [VideoSampleDesc directory]
  | | | | | | Unknown_CMP1 = .0......H...@.........
  | | | | | | - Tag 'CMP1' (52 bytes):
  | | | | | |     5c97: ff 00 00 30 01 00 00 00 00 00 18 90 00 00 0f d8 [...0............]
  | | | | | |     5ca7: 00 00 0c 48 00 00 0f d8 0e 40 00 00 00 00 00 d8 [...H.....@......]
  | | | | | |     5cb7: 00 00 00 00 01 01 00 00 01 01 00 00 01 01 00 00 [................]
  | | | | | |     5cc7: 01 01 00 00                                     [....]
  | | | | | | CDI1 (SubDirectory) -->
  | | | | | | - Tag 'CDI1' (60 bytes):
  | | | | | |     5cd3: 00 00 00 00 00 00 00 38 49 41 44 31 00 00 00 00 [.......8IAD1....]
  | | | | | |     5ce3: 18 90 0f d8 00 01 00 02 00 01 00 00 01 14 00 30 [...............0]
  | | | | | |     5cf3: 18 83 0f cf 00 00 00 00 01 07 0f d7 01 08 00 00 [................]
  | | | | | |     5d03: 18 8f 00 23 01 08 00 24 18 8f 0f d7             [...#...$....]
  | | | | | | + [CDI1 directory]
  | | | | | | | Unknown_IAD1 = .........0............#..$....
  | | | | | | | - Tag 'IAD1' (48 bytes):
  | | | | | | |     5cdf: 00 00 00 00 18 90 0f d8 00 01 00 02 00 01 00 00 [................]
  | | | | | | |     5cef: 01 14 00 30 18 83 0f cf 00 00 00 00 01 07 0f d7 [...0............]
  | | | | | | |     5cff: 01 08 00 00 18 8f 00 23 01 08 00 24 18 8f 0f d7 [.......#...$....]
  | | | | | | Unknown_free = 
  | | | | | | - Tag 'free' (2 bytes):
  | | | | | |     5d17: 00 00                                           [..]
  | | | | | VideoFrameRate = ...
  | | | | | - Tag 'stts' (16 bytes, undef):
  | | | | |     5d21: 00 00 00 00 00 00 00 01 00 00 00 01 00 00 00 01 [................]
  | | | | | SampleToChunk = ....
  | | | | | - Tag 'stsc' (20 bytes):
  | | | | |     5d39: 00 00 00 00 00 00 00 01 00 00 00 01 00 00 00 01 [................]
  | | | | |     5d49: 00 00 00 01                                     [....]
  | | | | | SampleSizes = .. ..
  | | | | | - Tag 'stsz' (12 bytes):
  | | | | |     5d55: 00 00 00 00 01 c5 20 f0 00 00 00 01             [...... .....]
  | | | | | Unknown_free = 
  | | | | | - Tag 'free' (7 bytes):
  | | | | |     5d69: 00 00 00 00 00 00 00                            [.......]
  | | | | | ChunkOffset64 = .I.G
  | | | | | - Tag 'co64' (16 bytes):
  | | | | |     5d78: 00 00 00 00 00 00 00 01 00 00 00 00 00 49 a2 47 [.............I.G]
  | Track (SubDirectory) -->
  | - Tag 'trak' (432 bytes):
  |     5d90: 00 00 00 5c 74 6b 68 64 00 00 00 07 d6 b3 11 9a [...\tkhd........]
  |     5da0: d6 b3 11 9a 00 00 00 04 00 00 00 00 00 00 00 01 [................]
  |     5db0: 00 00 00 00 00 00 00 00 00 00 00 00 00 00 00 00 [................]
  |     5dc0: 00 01 00 00 00 00 00 00 00 00 00 00 00 00 00 00 [................]
  |     5dd0: 00 01 00 00 00 00 00 00 00 00 00 00 00 00 00 00 [................]
  |     [snip 352 bytes]
  | + [Track directory]
  | | TrackHeader (SubDirectory) -->
  | | - Tag 'tkhd' (84 bytes):
  | |     5d98: 00 00 00 07 d6 b3 11 9a d6 b3 11 9a 00 00 00 04 [................]
  | |     5da8: 00 00 00 00 00 00 00 01 00 00 00 00 00 00 00 00 [................]
  | |     5db8: 00 00 00 00 00 00 00 00 00 01 00 00 00 00 00 00 [................]
  | |     5dc8: 00 00 00 00 00 00 00 00 00 01 00 00 00 00 00 00 [................]
  | |     5dd8: 00 00 00 00 00 00 00 00 40 00 00 00 00 00 00 00 [........@.......]
  | |     5de8: 00 00 00 00                                     [....]
  | | + [BinaryData directory, 84 bytes]
  | | | TrackHeaderVersion = 0
  | | | - Tag 0x0000 (1 bytes, int8u[1]):
  | | |     5d98: 00                                              [.]
  | | | TrackCreateDate = 3602059674
  | | | - Tag 0x0001 (4 bytes, int32u[1]):
  | | |     5d9c: d6 b3 11 9a                                     [....]
  | | | TrackModifyDate = 3602059674
  | | | - Tag 0x0002 (4 bytes, int32u[1]):
  | | |     5da0: d6 b3 11 9a                                     [....]
  | | | TrackID = 4
  | | | - Tag 0x0003 (4 bytes, int32u[1]):
  | | |     5da4: 00 00 00 04                                     [....]
  | | | TrackDuration = 1
  | | | - Tag 0x0005 (4 bytes, int32u[1]):
  | | |     5dac: 00 00 00 01                                     [....]
  | | | TrackLayer = 0
  | | | - Tag 0x0008 (2 bytes, int16u[1]):
  | | |     5db8: 00 00                                           [..]
  | | | TrackVolume = 0
  | | | - Tag 0x0009 (2 bytes, int16u[1]):
  | | |     5dbc: 00 00                                           [..]
  | | | MatrixStructure = 1 0 0 0 1 0 0 0 16384
  | | | - Tag 0x000a (36 bytes, fixed32s[9]):
  | | |     5dc0: 00 01 00 00 00 00 00 00 00 00 00 00 00 00 00 00 [................]
  | | |     5dd0: 00 01 00 00 00 00 00 00 00 00 00 00 00 00 00 00 [................]
  | | |     5de0: 40 00 00 00                                     [@...]
  | | | ImageWidth = 0
  | | | - Tag 0x0013 (4 bytes, int32u[1]):
  | | |     5de4: 00 00 00 00                                     [....]
  | | | ImageHeight = 0
  | | | - Tag 0x0014 (4 bytes, int32u[1]):
  | | |     5de8: 00 00 00 00                                     [....]
  | | Media (SubDirectory) -->
  | | - Tag 'mdia' (332 bytes):
  | |     5df4: 00 00 00 20 6d 64 68 64 00 00 00 00 d6 b3 11 9a [... mdhd........]
  | |     5e04: d6 b3 11 9a 00 00 00 01 00 00 00 01 15 c7 00 00 [................]
  | |     5e14: 00 00 00 21 68 64 6c 72 00 00 00 00 00 00 00 00 [...!hdlr........]
  | |     5e24: 6d 65 74 61 00 00 00 00 00 00 00 00 00 00 00 00 [meta............]
  | |     5e34: 00 00 00 01 0b 6d 69 6e 66 00 00 00 0c 6e 6d 68 [.....minf....nmh]
  | |     [snip 252 bytes]
  | | + [Media directory]
  | | | MediaHeader (SubDirectory) -->
  | | | - Tag 'mdhd' (24 bytes):
  | | |     5dfc: 00 00 00 00 d6 b3 11 9a d6 b3 11 9a 00 00 00 01 [................]
  | | |     5e0c: 00 00 00 01 15 c7 00 00                         [........]
  | | | + [BinaryData directory, 24 bytes]
  | | | | MediaHeaderVersion = 0
  | | | | - Tag 0x0000 (4 bytes, int32u[1]):
  | | | |     5dfc: 00 00 00 00                                     [....]
  | | | | MediaCreateDate = 3602059674
  | | | | - Tag 0x0001 (4 bytes, int32u[1]):
  | | | |     5e00: d6 b3 11 9a                                     [....]
  | | | | MediaModifyDate = 3602059674
  | | | | - Tag 0x0002 (4 bytes, int32u[1]):
  | | | |     5e04: d6 b3 11 9a                                     [....]
  | | | | MediaTimeScale = 1
  | | | | - Tag 0x0003 (4 bytes, int32u[1]):
  | | | |     5e08: 00 00 00 01                                     [....]
  | | | | MediaDuration = 1
  | | | | - Tag 0x0004 (4 bytes, int32u[1]):
  | | | |     5e0c: 00 00 00 01                                     [....]
  | | | | MediaLanguageCode = 5575
  | | | | - Tag 0x0005 (2 bytes, int16u[1]):
  | | | |     5e10: 15 c7                                           [..]
  | | | Handler (SubDirectory) -->
  | | | - Tag 'hdlr' (25 bytes):
  | | |     5e1c: 00 00 00 00 00 00 00 00 6d 65 74 61 00 00 00 00 [........meta....]
  | | |     5e2c: 00 00 00 00 00 00 00 00 00                      [.........]
  | | | + [BinaryData directory, 25 bytes]
  | | | | HandlerClass = 
  | | | | - Tag 0x0004 (4 bytes, undef[4]):
  | | | |     5e20: 00 00 00 00                                     [....]
  | | | | HandlerType = meta
  | | | | - Tag 0x0008 (4 bytes, undef[4]):
  | | | |     5e24: 6d 65 74 61                                     [meta]
  | | | | HandlerVendorID = 
  | | | | - Tag 0x000c (4 bytes, undef[4]):
  | | | |     5e28: 00 00 00 00                                     [....]
  | | | | HandlerDescription = 
  | | | | - Tag 0x0018 (1 bytes, string[1]):
  | | | |     5e34: 00                                              [.]
  | | | MediaInfo (SubDirectory) -->
  | | | - Tag 'minf' (259 bytes):
  | | |     5e3d: 00 00 00 0c 6e 6d 68 64 00 00 00 00 00 00 00 24 [....nmhd.......$]
  | | |     5e4d: 64 69 6e 66 00 00 00 1c 64 72 65 66 00 00 00 00 [dinf....dref....]
  | | |     5e5d: 00 00 00 01 00 00 00 0c 75 72 6c 20 00 00 00 01 [........url ....]
  | | |     5e6d: 00 00 00 d3 73 74 62 6c 00 00 00 5c 73 74 73 64 [....stbl...\stsd]
  | | |     5e7d: 00 00 00 00 00 00 00 01 00 00 00 4c 43 54 4d 44 [...........LCTMD]
  | | |     [snip 179 bytes]
  | | | + [MediaInfo directory]
  | | | | NullMediaHeader = 
  | | | | - Tag 'nmhd' (4 bytes):
  | | | |     5e45: 00 00 00 00                                     [....]
  | | | | DataInfo (SubDirectory) -->
  | | | | - Tag 'dinf' (28 bytes):
  | | | |     5e51: 00 00 00 1c 64 72 65 66 00 00 00 00 00 00 00 01 [....dref........]
  | | | |     5e61: 00 00 00 0c 75 72 6c 20 00 00 00 01             [....url ....]
  | | | | + [DataInfo directory]
  | | | | | DataRef (SubDirectory) -->
  | | | | | - Tag 'dref' (20 bytes):
  | | | | |     5e59: 00 00 00 00 00 00 00 01 00 00 00 0c 75 72 6c 20 [............url ]
  | | | | |     5e69: 00 00 00 01                                     [....]
  | | | | | + [DataRef directory]
  | | | | | | URL = .
  | | | | | | - Tag 'url ' (4 bytes, undef):
  | | | | | |     5e69: 00 00 00 01                                     [....]
  | | | | SampleTable (SubDirectory) -->
  | | | | - Tag 'stbl' (203 bytes):
  | | | |     5e75: 00 00 00 5c 73 74 73 64 00 00 00 00 00 00 00 01 [...\stsd........]
  | | | |     5e85: 00 00 00 4c 43 54 4d 44 00 00 00 00 00 00 00 01 [...LCTMD........]
  | | | |     5e95: 00 00 00 07 00 00 00 01 00 00 00 18 00 00 00 03 [................]
  | | | |     5ea5: 00 00 00 10 00 00 00 04 00 00 00 18 00 00 00 05 [................]
  | | | |     5eb5: 00 00 00 28 00 00 00 07 00 00 06 ba 00 00 00 08 [...(............]
  | | | |     [snip 123 bytes]
  | | | | + [SampleTable directory]
  | | | | | MetaSampleDesc (SubDirectory) -->
  | | | | | - Tag 'stsd' (84 bytes):
  | | | | |     5e7d: 00 00 00 00 00 00 00 01 00 00 00 4c 43 54 4d 44 [...........LCTMD]
  | | | | |     5e8d: 00 00 00 00 00 00 00 01 00 00 00 07 00 00 00 01 [................]
  | | | | |     5e9d: 00 00 00 18 00 00 00 03 00 00 00 10 00 00 00 04 [................]
  | | | | |     5ead: 00 00 00 18 00 00 00 05 00 00 00 28 00 00 00 07 [...........(....]
  | | | | |     5ebd: 00 00 06 ba 00 00 00 08 00 00 93 56 00 00 00 09 [...........V....]
  | | | | |     5ecd: 00 00 05 d4                                     [....]
  | | | | | + [BinaryData directory, 76 bytes]
  | | | | | | MetaFormat = CTMD
  | | | | | | - Tag 0x0004 (4 bytes, undef[4]):
  | | | | | |     5e89: 43 54 4d 44                                     [CTMD]
  | | | | | TimeToSampleTable = ...
  | | | | | - Tag 'stts' (16 bytes):
  | | | | |     5ed9: 00 00 00 00 00 00 00 01 00 00 00 01 00 00 00 01 [................]
  | | | | | SampleToChunk = ....
  | | | | | - Tag 'stsc' (20 bytes):
  | | | | |     5ef1: 00 00 00 00 00 00 00 01 00 00 00 01 00 00 00 01 [................]
  | | | | |     5f01: 00 00 00 01                                     [....]
  | | | | | SampleSizes = .L.
  | | | | | - Tag 'stsz' (12 bytes):
  | | | | |     5f0d: 00 00 00 00 00 00 a0 4c 00 00 00 01             [.......L....]
  | | | | | Unknown_free = 
  | | | | | - Tag 'free' (7 bytes):
  | | | | |     5f21: 00 00 00 00 00 00 00                            [.......]
  | | | | | ChunkOffset64 = ....7
  | | | | | - Tag 'co64' (16 bytes):
  | | | | |     5f30: 00 00 00 00 00 00 00 01 00 00 00 00 02 0e c3 37 [...............7]
---- Extract Embedded ----
Track4 Type='meta' Format='CTMD', Sample 1 of 1 (41036 bytes)
 20ec337: 18 00 00 00 01 00 00 00 00 01 00 00 00 00 e2 07 [................]
 20ec347: 02 15 0c 07 36 19 00 00 10 00 00 00 03 00 00 00 [....6...........]
 20ec357: 00 01 00 00 ff ff ff ff 18 00 00 00 04 00 00 00 [................]
 20ec367: 00 01 ff ff 0f 00 01 00 ff ff ff ff ff ff ff ff [................]
 20ec377: 28 00 00 00 05 00 00 00 00 01 ff ff 23 00 0a 00 [(...........#...]
    [snip 40956 bytes]
SampleTime = 0
SampleDuration = 1
CTMD (SubDirectory) -->
- Tag 'CTMD' (41036 bytes):
 20ec337: 18 00 00 00 01 00 00 00 00 01 00 00 00 00 e2 07 [................]
 20ec347: 02 15 0c 07 36 19 00 00 10 00 00 00 03 00 00 00 [....6...........]
 20ec357: 00 01 00 00 ff ff ff ff 18 00 00 00 04 00 00 00 [................]
 20ec367: 00 01 ff ff 0f 00 01 00 ff ff ff ff ff ff ff ff [................]
 20ec377: 28 00 00 00 05 00 00 00 00 01 ff ff 23 00 0a 00 [(...........#...]
    [snip 40956 bytes]
+ [CTMD type 1 directory, 12 bytes]
| TimeStamp = ......6.
| - Tag 0x0001 (12 bytes):
|  20ec343: 00 00 e2 07 02 15 0c 07 36 19 00 00             [........6...]
+ [CTMD type 3 directory, 4 bytes]
|  20ec35b: ff ff ff ff                                     [....]
+ [CTMD type 4 directory, 12 bytes]
| FocalInfo (SubDirectory) -->
| - Tag 0x0004 (12 bytes):
|  20ec36b: 0f 00 01 00 ff ff ff ff ff ff ff ff             [............]
| + [BinaryData directory, 12 bytes]
| | FocalLength = 15
| | - Tag 0x0000 (4 bytes, rational32u[1]):
| |  20ec36b: 0f 00 01 00                                     [....]
+ [CTMD type 5 directory, 28 bytes]
| ExposureInfo (SubDirectory) -->
| - Tag 0x0005 (28 bytes):
|  20ec383: 23 00 0a 00 01 00 3c 00 88 13 00 00 01 00 00 00 [#.....<.........]
|  20ec393: ff ff ff ff 00 00 00 00 ff ff ff ff             [............]
| + [BinaryData directory, 28 bytes]
| | FNumber = 3.5
| | - Tag 0x0000 (4 bytes, rational32u[1]):
| |  20ec383: 23 00 0a 00                                     [#...]
| | ExposureTime = 0.01666667
| | - Tag 0x0001 (4 bytes, rational32u[1]):
| |  20ec387: 01 00 3c 00                                     [..<.]
| | ISO = 5000
| | - Tag 0x0002 (4 bytes, int32u[1]):
| |  20ec38b: 88 13 00 00                                     [....]
+ [CTMD type 7 directory, 1710 bytes]
| TimedExif7 (SubDirectory) -->
| - Tag 0x0007 (1710 bytes):
|  20ec3ab: 1e 00 00 00 69 87 00 00 49 49 2a 00 08 00 00 00 [....i...II*.....]
|  20ec3bb: 01 00 06 a4 03 00 01 00 00 00 00 00 00 00 90 06 [................]
|  20ec3cb: 00 00 7c 92 00 00 49 49 2a 00 08 00 00 00 06 00 [..|...II*.......]
|  20ec3db: 01 00 03 00 31 00 00 00 52 00 00 00 04 00 03 00 [....1...R.......]
|  20ec3eb: 22 00 00 00 b4 00 00 00 26 00 03 00 60 02 00 00 [".......&...`...]
|     [snip 1630 bytes]
| + [TimedExif directory, 1710 bytes]
| | ExifIFD (SubDirectory) -->
| | - Tag 0x8769 (22 bytes):
| |  20ec3b3: 49 49 2a 00 08 00 00 00 01 00 06 a4 03 00 01 00 [II*.............]
| |  20ec3c3: 00 00 00 00 00 00                               [......]
| | + [TIFF directory]
| | | ExifByteOrder = II
| | | + [ExifIFD directory with 1 entries]
| | | | 0)  SceneCaptureType = 0
| | | |     - Tag 0xa406 (2 bytes, int16u[1]):
| | | |      20ec3c5: 00 00                                           [..]
| | MakerNoteCanon (SubDirectory) -->
| | - Tag 0x927c (1672 bytes):
| |  20ec3d1: 49 49 2a 00 08 00 00 00 06 00 01 00 03 00 31 00 [II*...........1.]
| |  20ec3e1: 00 00 52 00 00 00 04 00 03 00 22 00 00 00 b4 00 [..R.......".....]
| |  20ec3f1: 00 00 26 00 03 00 60 02 00 00 f8 00 00 00 93 00 [..&...`.........]
| |  20ec401: 03 00 42 00 00 00 b8 05 00 00 a0 00 03 00 12 00 [..B.............]
| |  20ec411: 00 00 3c 06 00 00 16 40 04 00 0a 00 00 00 60 06 [..<....@......`.]
| |     [snip 1592 bytes]
| | + [TIFF directory]
| | | + [Canon directory with 6 entries]
| | | | 0)  CanonCameraSettings (SubDirectory) -->
| | | |     - Tag 0x0001 (98 bytes, int16u[49] read as undef[98]):
| | | |      20ec423: 62 00 02 00 00 00 04 00 00 00 00 00 00 00 00 01 [b...............]
| | | |      20ec433: 00 00 0d 00 00 00 01 00 00 00 00 00 00 00 ff 7f [................]
| | | |      20ec443: 0f 00 03 00 02 00 00 00 03 00 ff ff 39 10 2d 00 [............9.-.]
| | | |      20ec453: 0f 00 01 00 74 00 20 01 00 00 08 00 00 00 00 00 [....t. .........]
| | | |      20ec463: ff ff ff ff ff ff 00 00 00 00 00 00 00 00 ff ff [................]
| | | |         [snip 18 bytes]
| | | | + [BinaryData directory, 98 bytes]
| | | | | MacroMode = 2
| | | | | - Tag 0x0001 (2 bytes, int16s[1]):
| | | | |  20ec425: 02 00                                           [..]
| | | | | SelfTimer = 0
| | | | | - Tag 0x0002 (2 bytes, int16s[1]):
| | | | |  20ec427: 00 00                                           [..]
| | | | | Quality = 4
| | | | | - Tag 0x0003 (2 bytes, int16s[1]):
| | | | |  20ec429: 04 00                                           [..]
| | | | | CanonFlashMode = 0
| | | | | - Tag 0x0004 (2 bytes, int16s[1]):
| | | | |  20ec42b: 00 00                                           [..]
| | | | | ContinuousDrive = 0
| | | | | - Tag 0x0005 (2 bytes, int16s[1]):
| | | | |  20ec42d: 00 00                                           [..]
| | | | | FocusMode = 256
| | | | | - Tag 0x0007 (2 bytes, int16s[1]):
| | | | |  20ec431: 00 01                                           [..]
| | | | | RecordMode = 13
| | | | | - Tag 0x0009 (2 bytes, int16s[1]):
| | | | |  20ec435: 0d 00                                           [..]
| | | | | CanonImageSize = 0
| | | | | - Tag 0x000a (2 bytes, int16s[1]):
| | | | |  20ec437: 00 00                                           [..]
| | | | | EasyMode = 1
| | | | | - Tag 0x000b (2 bytes, int16s[1]):
| | | | |  20ec439: 01 00                                           [..]
| | | | | DigitalZoom = 0
| | | | | - Tag 0x000c (2 bytes, int16s[1]):
| | | | |  20ec43b: 00 00                                           [..]
| | | | | Contrast = 0
| | | | | - Tag 0x000d (2 bytes, int16s[1]):
| | | | |  20ec43d: 00 00                                           [..]
| | | | | Saturation = 0
| | | | | - Tag 0x000e (2 bytes, int16s[1]):
| | | | |  20ec43f: 00 00                                           [..]
| | | | | Sharpness = 32767
| | | | | - Tag 0x000f (2 bytes, int16s[1]):
| | | | |  20ec441: ff 7f                                           [..]
| | | | | CameraISO = 15
| | | | | - Tag 0x0010 (2 bytes, int16s[1]):
| | | | |  20ec443: 0f 00                                           [..]
| | | | | MeteringMode = 3
| | | | | - Tag 0x0011 (2 bytes, int16s[1]):
| | | | |  20ec445: 03 00                                           [..]
| | | | | FocusRange = 2
| | | | | - Tag 0x0012 (2 bytes, int16s[1]):
| | | | |  20ec447: 02 00                                           [..]
| | | | | AFPoint = 0
| | | | | - Tag 0x0013 (2 bytes, int16s[1]):
| | | | |  20ec449: 00 00                                           [..]
| | | | | CanonExposureMode = 3
| | | | | - Tag 0x0014 (2 bytes, int16s[1]):
| | | | |  20ec44b: 03 00                                           [..]
| | | | | LensType = 4153
| | | | | - Tag 0x0016 (2 bytes, int16u[1]):
| | | | |  20ec44f: 39 10                                           [9.]
| | | | | MaxFocalLength = 45
| | | | | - Tag 0x0017 (2 bytes, int16u[1]):
| | | | |  20ec451: 2d 00                                           [-.]
| | | | | MinFocalLength = 15
| | | | | - Tag 0x0018 (2 bytes, int16u[1]):
| | | | |  20ec453: 0f 00                                           [..]
| | | | | FocalUnits = 1
| | | | | - Tag 0x0019 (2 bytes, int16s[1]):
| | | | |  20ec455: 01 00                                           [..]
| | | | | MaxAperture = 116
| | | | | - Tag 0x001a (2 bytes, int16s[1]):
| | | | |  20ec457: 74 00                                           [t.]
| | | | | MinAperture = 288
| | | | | - Tag 0x001b (2 bytes, int16s[1]):
| | | | |  20ec459: 20 01                                           [ .]
| | | | | FlashActivity = 0
| | | | | - Tag 0x001c (2 bytes, int16s[1]):
| | | | |  20ec45b: 00 00                                           [..]
| | | | | FlashBits = 8
| | | | | - Tag 0x001d (2 bytes, int16s[1]):
| | | | |  20ec45d: 08 00                                           [..]
| | | | | FocusContinuous = -1
| | | | | - Tag 0x0020 (2 bytes, int16s[1]):
| | | | |  20ec463: ff ff                                           [..]
| | | | | AESetting = -1
| | | | | - Tag 0x0021 (2 bytes, int16s[1]):
| | | | |  20ec465: ff ff                                           [..]
| | | | | ImageStabilization = -1
| | | | | - Tag 0x0022 (2 bytes, int16s[1]):
| | | | |  20ec467: ff ff                                           [..]
| | | | | DisplayAperture = 0
| | | | | - Tag 0x0023 (2 bytes, int16s[1]):
| | | | |  20ec469: 00 00                                           [..]
| | | | | ZoomSourceWidth = 0
| | | | | - Tag 0x0024 (2 bytes, int16s[1]):
| | | | |  20ec46b: 00 00                                           [..]
| | | | | ZoomTargetWidth = 0
| | | | | - Tag 0x0025 (2 bytes, int16s[1]):
| | | | |  20ec46d: 00 00                                           [..]
| | | | | SpotMeteringMode = -1
| | | | | - Tag 0x0027 (2 bytes, int16s[1]):
| | | | |  20ec471: ff ff                                           [..]
| | | | | PhotoEffect = -1
| | | | | - Tag 0x0028 (2 bytes, int16s[1]):
| | | | |  20ec473: ff ff                                           [..]
| | | | | ManualFlashOutput = 0
| | | | | - Tag 0x0029 (2 bytes, int16s[1]):
| | | | |  20ec475: 00 00                                           [..]
| | | | | ColorTone = 0
| | | | | - Tag 0x002a (2 bytes, int16s[1]):
| | | | |  20ec477: 00 00                                           [..]
| | | | | SRAWQuality = 0
| | | | | - Tag 0x002e (2 bytes, int16s[1]):
| | | | |  20ec47f: 00 00                                           [..]
| | | | 1)  CanonShotInfo (SubDirectory) -->
| | | |     - Tag 0x0004 (68 bytes, int16u[34] read as undef[68]):
| | | |      20ec485: 44 00 00 00 54 01 e0 ff 74 00 c0 00 00 00 00 00 [D...T...t.......]
| | | |      20ec495: 03 00 00 00 08 00 08 00 a5 00 00 00 00 00 00 00 [................]
| | | |      20ec4a5: 00 00 00 00 01 00 00 00 00 00 74 00 c0 00 46 00 [..........t...F.]
| | | |      20ec4b5: 00 00 00 00 f8 00 00 00 ff ff ff ff ff ff 00 00 [................]
| | | |      20ec4c5: 00 00 00 00                                     [....]
| | | | + [BinaryData directory, 68 bytes]
| | | | | AutoISO = 0
| | | | | - Tag 0x0001 (2 bytes, int16s[1]):
| | | | |  20ec487: 00 00                                           [..]
| | | | | BaseISO = 340
| | | | | - Tag 0x0002 (2 bytes, int16s[1]):
| | | | |  20ec489: 54 01                                           [T.]
| | | | | MeasuredEV = -32
| | | | | - Tag 0x0003 (2 bytes, int16s[1]):
| | | | |  20ec48b: e0 ff                                           [..]
| | | | | TargetAperture = 116
| | | | | - Tag 0x0004 (2 bytes, int16s[1]):
| | | | |  20ec48d: 74 00                                           [t.]
| | | | | TargetExposureTime = 192
| | | | | - Tag 0x0005 (2 bytes, int16s[1]):
| | | | |  20ec48f: c0 00                                           [..]
| | | | | ExposureCompensation = 0
| | | | | - Tag 0x0006 (2 bytes, int16s[1]):
| | | | |  20ec491: 00 00                                           [..]
| | | | | WhiteBalance = 0
| | | | | - Tag 0x0007 (2 bytes, int16s[1]):
| | | | |  20ec493: 00 00                                           [..]
| | | | | SlowShutter = 3
| | | | | - Tag 0x0008 (2 bytes, int16s[1]):
| | | | |  20ec495: 03 00                                           [..]
| | | | | SequenceNumber = 0
| | | | | - Tag 0x0009 (2 bytes, int16s[1]):
| | | | |  20ec497: 00 00                                           [..]
| | | | | OpticalZoomCode = 8
| | | | | - Tag 0x000a (2 bytes, int16s[1]):
| | | | |  20ec499: 08 00                                           [..]
| | | | | CameraTemperature = 165
| | | | | - Tag 0x000c (2 bytes, int16s[1]):
| | | | |  20ec49d: a5 00                                           [..]
| | | | | FlashGuideNumber = 0
| | | | | - Tag 0x000d (2 bytes, int16s[1]):
| | | | |  20ec49f: 00 00                                           [..]
| | | | | AFPointsInFocus = 0
| | | | | - Tag 0x000e (2 bytes, int16s[1]):
| | | | |  20ec4a1: 00 00                                           [..]
| | | | | FlashExposureComp = 0
| | | | | - Tag 0x000f (2 bytes, int16s[1]):
| | | | |  20ec4a3: 00 00                                           [..]
| | | | | AutoExposureBracketing = 0
| | | | | - Tag 0x0010 (2 bytes, int16s[1]):
| | | | |  20ec4a5: 00 00                                           [..]
| | | | | AEBBracketValue = 0
| | | | | - Tag 0x0011 (2 bytes, int16s[1]):
| | | | |  20ec4a7: 00 00                                           [..]
| | | | | ControlMode = 1
| | | | | - Tag 0x0012 (2 bytes, int16s[1]):
| | | | |  20ec4a9: 01 00                                           [..]
| | | | | FocusDistanceUpper = 0
| | | | | - Tag 0x0013 (2 bytes, int16u[1]):
| | | | |  20ec4ab: 00 00                                           [..]
| | | | | FNumber = 116
| | | | | - Tag 0x0015 (2 bytes, int16s[1]):
| | | | |  20ec4af: 74 00                                           [t.]
| | | | | ExposureTime = 192
| | | | | - Tag 0x0016 (2 bytes, int16s[1]):
| | | | |  20ec4b1: c0 00                                           [..]
| | | | | MeasuredEV2 = 70
| | | | | - Tag 0x0017 (2 bytes, int16s[1]):
| | | | |  20ec4b3: 46 00                                           [F.]
| | | | | BulbDuration = 0
| | | | | - Tag 0x0018 (2 bytes, int16s[1]):
| | | | |  20ec4b5: 00 00                                           [..]
| | | | | CameraType = 248
| | | | | - Tag 0x001a (2 bytes, int16s[1]):
| | | | |  20ec4b9: f8 00                                           [..]
| | | | | AutoRotate = 0
| | | | | - Tag 0x001b (2 bytes, int16s[1]):
| | | | |  20ec4bb: 00 00                                           [..]
| | | | | NDFilter = -1
| | | | | - Tag 0x001c (2 bytes, int16s[1]):
| | | | |  20ec4bd: ff ff                                           [..]
| | | | | SelfTimer2 = -1
| | | | | - Tag 0x001d (2 bytes, int16s[1]):
| | | | |  20ec4bf: ff ff                                           [..]
| | | | | FlashOutput = 0
| | | | | - Tag 0x0021 (2 bytes, int16s[1]):
| | | | |  20ec4c7: 00 00                                           [..]
| | | | 2)  CanonAFInfo2 (SubDirectory) -->
| | | |     - Tag 0x0026 (1216 bytes, int16u[608] read as undef[1216]):
| | | |      20ec4c9: c0 04 06 00 8f 00 63 00 70 17 a0 0f 70 17 a0 0f [......c.p...p...]
| | | |      20ec4d9: 68 01 68 01 68 01 68 01 68 01 68 01 68 01 68 01 [h.h.h.h.h.h.h.h.]
| | | |      20ec4e9: 68 01 68 01 68 01 68 01 68 01 68 01 68 01 68 01 [h.h.h.h.h.h.h.h.]
| | | |      20ec4f9: 68 01 68 01 68 01 68 01 68 01 68 01 68 01 68 01 [h.h.h.h.h.h.h.h.]
| | | |      20ec509: 68 01 68 01 68 01 68 01 68 01 68 01 68 01 68 01 [h.h.h.h.h.h.h.h.]
| | | |         [snip 1136 bytes]
| | | | + [SerialData directory, 1216 bytes]
| | | | | 0)  AFInfoSize = 1216
| | | | |     - Tag 0x0000 (2 bytes, int16u[1]):
| | | | |      20ec4c9: c0 04                                           [..]
| | | | | 1)  AFAreaMode = 6
| | | | |     - Tag 0x0001 (2 bytes, int16u[1]):
| | | | |      20ec4cb: 06 00                                           [..]
| | | | | 2)  NumAFPoints = 143
| | | | |     - Tag 0x0002 (2 bytes, int16u[1]):
| | | | |      20ec4cd: 8f 00                                           [..]
| | | | | 3)  ValidAFPoints = 99
| | | | |     - Tag 0x0003 (2 bytes, int16u[1]):
| | | | |      20ec4cf: 63 00                                           [c.]
| | | | | 4)  CanonImageWidth = 6000
| | | | |     - Tag 0x0004 (2 bytes, int16u[1]):
| | | | |      20ec4d1: 70 17                                           [p.]
| | | | | 5)  CanonImageHeight = 4000
| | | | |     - Tag 0x0005 (2 bytes, int16u[1]):
| | | | |      20ec4d3: a0 0f                                           [..]
| | | | | 6)  AFImageWidth = 6000
| | | | |     - Tag 0x0006 (2 bytes, int16u[1]):
| | | | |      20ec4d5: 70 17                                           [p.]
| | | | | 7)  AFImageHeight = 4000
| | | | |     - Tag 0x0007 (2 bytes, int16u[1]):
| | | | |      20ec4d7: a0 0f                                           [..]
| | | | | 8)  AFAreaWidths = 360 360 360 360 360 360 360 360 360 360 360 360 360 360 36[snip]
| | | | |     - Tag 0x0008 (286 bytes, int16s[143]):
| | | | |      20ec4d9: 68 01 68 01 68 01 68 01 68 01 68 01 68 01 68 01 [h.h.h.h.h.h.h.h.]
| | | | |      20ec4e9: 68 01 68 01 68 01 68 01 68 01 68 01 68 01 68 01 [h.h.h.h.h.h.h.h.]
| | | | |      20ec4f9: 68 01 68 01 68 01 68 01 68 01 68 01 68 01 68 01 [h.h.h.h.h.h.h.h.]
| | | | |      20ec509: 68 01 68 01 68 01 68 01 68 01 68 01 68 01 68 01 [h.h.h.h.h.h.h.h.]
| | | | |      20ec519: 68 01 68 01 68 01 68 01 68 01 68 01 68 01 68 01 [h.h.h.h.h.h.h.h.]
| | | | |         [snip 206 bytes]
| | | | | 9)  AFAreaHeights = 300 300 300 300 300 300 300 300 300 300 300 300 300 300 3[snip]
| | | | |     - Tag 0x0009 (286 bytes, int16s[143]):
| | | | |      20ec5f7: 2c 01 2c 01 2c 01 2c 01 2c 01 2c 01 2c 01 2c 01 [,.,.,.,.,.,.,.,.]
| | | | |      20ec607: 2c 01 2c 01 2c 01 2c 01 2c 01 2c 01 2c 01 2c 01 [,.,.,.,.,.,.,.,.]
| | | | |      20ec617: 2c 01 2c 01 2c 01 2c 01 2c 01 2c 01 2c 01 2c 01 [,.,.,.,.,.,.,.,.]
| | | | |      20ec627: 2c 01 2c 01 2c 01 2c 01 2c 01 2c 01 2c 01 2c 01 [,.,.,.,.,.,.,.,.]
| | | | |      20ec637: 2c 01 2c 01 2c 01 2c 01 2c 01 2c 01 2c 01 2c 01 [,.,.,.,.,.,.,.,.]
| | | | |         [snip 206 bytes]
| | | | | 10) AFAreaXPositions = -1940 -1552 -1164 -776 -388 0 388 776 1164 1552 1940 -[snip]
| | | | |     - Tag 0x000a (286 bytes, int16s[143]):
| | | | |      20ec715: 6c f8 f0 f9 74 fb f8 fc 7c fe 00 00 84 01 08 03 [l...t...|.......]
| | | | |      20ec725: 8c 04 10 06 94 07 6c f8 f0 f9 74 fb f8 fc 7c fe [......l...t...|.]
| | | | |      20ec735: 00 00 84 01 08 03 8c 04 10 06 94 07 6c f8 f0 f9 [............l...]
| | | | |      20ec745: 74 fb f8 fc 7c fe 00 00 84 01 08 03 8c 04 10 06 [t...|...........]
| | | | |      20ec755: 94 07 6c f8 f0 f9 74 fb f8 fc 7c fe 00 00 84 01 [..l...t...|.....]
| | | | |         [snip 206 bytes]
| | | | | 11) AFAreaYPositions = 1360 1360 1360 1360 1360 1360 1360 1360 1360 1360 1360[snip]
| | | | |     - Tag 0x000b (286 bytes, int16s[143]):
| | | | |      20ec833: 50 05 50 05 50 05 50 05 50 05 50 05 50 05 50 05 [P.P.P.P.P.P.P.P.]
| | | | |      20ec843: 50 05 50 05 50 05 fc 03 fc 03 fc 03 fc 03 fc 03 [P.P.P...........]
| | | | |      20ec853: fc 03 fc 03 fc 03 fc 03 fc 03 fc 03 a8 02 a8 02 [................]
| | | | |      20ec863: a8 02 a8 02 a8 02 a8 02 a8 02 a8 02 a8 02 a8 02 [................]
| | | | |      20ec873: a8 02 54 01 54 01 54 01 54 01 54 01 54 01 54 01 [..T.T.T.T.T.T.T.]
| | | | |         [snip 206 bytes]
| | | | | 12) AFPointsInFocus = 0 0 0 16384 512 0 0 0 0
| | | | |     - Tag 0x000c (18 bytes, int16s[9]):
| | | | |      20ec951: 00 00 00 00 00 00 00 40 00 02 00 00 00 00 00 00 [.......@........]
| | | | |      20ec961: 00 00                                           [..]
| | | | | 13) AFPointsSelected = -1 -1 -1 -1 -1 -1 7 0 0
| | | | |     - Tag 0x000d (18 bytes, int16s[9]):
| | | | |      20ec963: ff ff ff ff ff ff ff ff ff ff ff ff 07 00 00 00 [................]
| | | | |      20ec973: 00 00                                           [..]
| | | | 3)  CanonFileInfo (SubDirectory) -->
| | | |     - Tag 0x0093 (132 bytes, int16u[66] read as undef[132]):
| | | |      20ec989: 84 00 00 00 00 00 00 00 00 00 00 00 00 00 00 00 [................]
| | | |      20ec999: ff ff 00 00 00 00 00 00 00 00 00 00 ff ff ff ff [................]
| | | |      20ec9a9: 16 01 ff ff 01 00 01 00 25 00 22 00 00 00 01 00 [........%.".....]
| | | |      20ec9b9: 00 00 00 00 ff ff 00 00 3f 00 3f 00 19 00 1f 00 [........?.?.....]
| | | |      20ec9c9: 00 00 74 00 00 00 00 00 00 00 00 00 00 00 00 00 [..t.............]
| | | |         [snip 52 bytes]
| | | | + [BinaryData directory, 132 bytes]
| | | | | BracketMode = 0
| | | | | - Tag 0x0003 (2 bytes, int16s[1]):
| | | | |  20ec98f: 00 00                                           [..]
| | | | | BracketValue = 0
| | | | | - Tag 0x0004 (2 bytes, int16s[1]):
| | | | |  20ec991: 00 00                                           [..]
| | | | | BracketShotNumber = 0
| | | | | - Tag 0x0005 (2 bytes, int16s[1]):
| | | | |  20ec993: 00 00                                           [..]
| | | | | RawJpgQuality = 0
| | | | | - Tag 0x0006 (2 bytes, int16s[1]):
| | | | |  20ec995: 00 00                                           [..]
| | | | | RawJpgSize = 0
| | | | | - Tag 0x0007 (2 bytes, int16s[1]):
| | | | |  20ec997: 00 00                                           [..]
| | | | | LongExposureNoiseReduction2 = -1
| | | | | - Tag 0x0008 (2 bytes, int16s[1]):
| | | | |  20ec999: ff ff                                           [..]
| | | | | WBBracketMode = 0
| | | | | - Tag 0x0009 (2 bytes, int16s[1]):
| | | | |  20ec99b: 00 00                                           [..]
| | | | | WBBracketValueAB = 0
| | | | | - Tag 0x000c (2 bytes, int16s[1]):
| | | | |  20ec9a1: 00 00                                           [..]
| | | | | WBBracketValueGM = 0
| | | | | - Tag 0x000d (2 bytes, int16s[1]):
| | | | |  20ec9a3: 00 00                                           [..]
| | | | | FilterEffect = -1
| | | | | - Tag 0x000e (2 bytes, int16s[1]):
| | | | |  20ec9a5: ff ff                                           [..]
| | | | | ToningEffect = -1
| | | | | - Tag 0x000f (2 bytes, int16s[1]):
| | | | |  20ec9a7: ff ff                                           [..]
| | | | | LiveViewShooting = 1
| | | | | - Tag 0x0013 (2 bytes, int16s[1]):
| | | | |  20ec9af: 01 00                                           [..]
| | | | | FocusDistanceUpper = 37
| | | | | - Tag 0x0014 (2 bytes, int16u[1]):
| | | | |  20ec9b1: 25 00                                           [%.]
| | | | | FocusDistanceLower = 34
| | | | | - Tag 0x0015 (2 bytes, int16u[1]):
| | | | |  20ec9b3: 22 00                                           [".]
| | | | | FlashExposureLock = 0
| | | | | - Tag 0x0019 (2 bytes, int16s[1]):
| | | | |  20ec9bb: 00 00                                           [..]
| | | | 4)  ProcessingInfo (SubDirectory) -->
| | | |     - Tag 0x00a0 (36 bytes, int16u[18] read as undef[36]):
| | | |      20eca0d: 24 00 00 00 04 00 00 00 00 00 00 00 00 00 00 00 [$...............]
| | | |      20eca1d: ff ff 50 14 87 00 00 00 00 00 00 00 02 00 04 00 [..P.............]
| | | |      20eca2d: 00 00 ff ff                                     [....]
| | | | + [BinaryData directory, 36 bytes]
| | | | | ToneCurve = 0
| | | | | - Tag 0x0001 (2 bytes, int16s[1]):
| | | | |  20eca0f: 00 00                                           [..]
| | | | | Sharpness = 4
| | | | | - Tag 0x0002 (2 bytes, int16s[1]):
| | | | |  20eca11: 04 00                                           [..]
| | | | | SharpnessFrequency = 0
| | | | | - Tag 0x0003 (2 bytes, int16s[1]):
| | | | |  20eca13: 00 00                                           [..]
| | | | | SensorRedLevel = 0
| | | | | - Tag 0x0004 (2 bytes, int16s[1]):
| | | | |  20eca15: 00 00                                           [..]
| | | | | SensorBlueLevel = 0
| | | | | - Tag 0x0005 (2 bytes, int16s[1]):
| | | | |  20eca17: 00 00                                           [..]
| | | | | WhiteBalanceRed = 0
| | | | | - Tag 0x0006 (2 bytes, int16s[1]):
| | | | |  20eca19: 00 00                                           [..]
| | | | | WhiteBalanceBlue = 0
| | | | | - Tag 0x0007 (2 bytes, int16s[1]):
| | | | |  20eca1b: 00 00                                           [..]
| | | | | WhiteBalance = -1
| | | | | - Tag 0x0008 (2 bytes, int16s[1]):
| | | | |  20eca1d: ff ff                                           [..]
| | | | | ColorTemperature = 5200
| | | | | - Tag 0x0009 (2 bytes, int16s[1]):
| | | | |  20eca1f: 50 14                                           [P.]
| | | | | PictureStyle = 135
| | | | | - Tag 0x000a (2 bytes, int16s[1]):
| | | | |  20eca21: 87 00                                           [..]
| | | | | DigitalGain = 0
| | | | | - Tag 0x000b (2 bytes, int16s[1]):
| | | | |  20eca23: 00 00                                           [..]
| | | | | WBShiftAB = 0
| | | | | - Tag 0x000c (2 bytes, int16s[1]):
| | | | |  20eca25: 00 00                                           [..]
| | | | | WBShiftGM = 0
| | | | | - Tag 0x000d (2 bytes, int16s[1]):
| | | | |  20eca27: 00 00                                           [..]
| | | | 5)  VignettingCorr2 (SubDirectory) -->
| | | |     - Tag 0x4016 (40 bytes, int32u[10] read as undef[40]):
| | | |      20eca31: 28 00 00 00 00 00 00 00 01 00 00 00 00 00 00 00 [(...............]
| | | |      20eca41: 01 00 00 00 01 00 00 00 01 00 00 00 00 00 00 00 [................]
| | | |      20eca51: 01 00 00 00 00 00 00 00                         [........]
| | | | + [BinaryData directory, 40 bytes]
| | | | | PeripheralLightingSetting = 1
| | | | | - Tag 0x0005 (4 bytes, int32s[1]):
| | | | |  20eca45: 01 00 00 00                                     [....]
| | | | | ChromaticAberrationSetting = 1
| | | | | - Tag 0x0006 (4 bytes, int32s[1]):
| | | | |  20eca49: 01 00 00 00                                     [....]
+ [CTMD type 8 directory, 37706 bytes]
| TimedExif8 (SubDirectory) -->
| - Tag 0x0008 (37706 bytes):
|  20eca65: 4a 93 00 00 7c 92 00 00 49 49 2a 00 08 00 00 00 [J...|...II*.....]
|  20eca75: 03 00 01 40 03 00 1c 07 00 00 2e 00 00 00 05 40 [...@...........@]
|  20eca85: 07 00 dc 7e 00 00 66 0e 00 00 0d 00 07 00 00 06 [...~..f.........]
|  20eca95: 00 00 42 8d 00 00 10 00 77 04 00 04 00 04 f7 01 [..B.....w.......]
|  20ecaa5: 9f 02 00 04 00 04 ea 02 50 02 00 04 00 04 d4 04 [........P.......]
|     [snip 37626 bytes]
| + [TimedExif directory, 37706 bytes]
| | MakerNoteCanon (SubDirectory) -->
| | - Tag 0x927c (37698 bytes):
| |  20eca6d: 49 49 2a 00 08 00 00 00 03 00 01 40 03 00 1c 07 [II*........@....]
| |  20eca7d: 00 00 2e 00 00 00 05 40 07 00 dc 7e 00 00 66 0e [.......@...~..f.]
| |  20eca8d: 00 00 0d 00 07 00 00 06 00 00 42 8d 00 00 10 00 [..........B.....]
| |  20eca9d: 77 04 00 04 00 04 f7 01 9f 02 00 04 00 04 ea 02 [w...............]
| |  20ecaad: 50 02 00 04 00 04 d4 04 7e 04 00 04 00 04 06 02 [P.......~.......]
| |     [snip 37618 bytes]
| | + [TIFF directory]
| | | + [Canon directory with 3 entries]
| | | | 0)  ColorData9 (SubDirectory) -->
| | | |     - Tag 0x4001 (3640 bytes, int16u[1820] read as undef[3640]):
| | | |      20eca9b: 10 00 77 04 00 04 00 04 f7 01 9f 02 00 04 00 04 [..w.............]
| | | |      20ecaab: ea 02 50 02 00 04 00 04 d4 04 7e 04 00 04 00 04 [..P.......~.....]
| | | |      20ecabb: 06 02 a6 02 00 04 00 04 f9 02 58 02 00 04 00 04 [..........X.....]
| | | |      20ecacb: ed 04 00 00 00 00 00 01 00 01 00 01 00 00 02 00 [................]
| | | |      20ecadb: 04 00 02 00 04 00 00 00 00 00 00 00 00 00 00 00 [................]
| | | |         [snip 3560 bytes]
| | | | + [BinaryData directory, 3640 bytes]
| | | | | ColorDataVersion = 16
| | | | | - Tag 0x0000 (2 bytes, int16s[1]):
| | | | |  20eca9b: 10 00                                           [..]
| | | | | WB_RGGBLevelsAsShot = 1134 1024 1024 1953
| | | | | - Tag 0x0047 (8 bytes, int16s[4]):
| | | | |  20ecb29: 6e 04 00 04 00 04 a1 07                         [n.......]
| | | | | ColorTempAsShot = 3200
| | | | | - Tag 0x004b (2 bytes, int16s[1]):
| | | | |  20ecb31: 80 0c                                           [..]
| | | | | WB_RGGBLevelsAuto = 1134 1024 1024 1953
| | | | | - Tag 0x004c (8 bytes, int16s[4]):
| | | | |  20ecb33: 6e 04 00 04 00 04 a1 07                         [n.......]
| | | | | ColorTempAuto = 3200
| | | | | - Tag 0x0050 (2 bytes, int16s[1]):
| | | | |  20ecb3b: 80 0c                                           [..]
| | | | | WB_RGGBLevelsMeasured = 1134 1024 1024 1953
| | | | | - Tag 0x0051 (8 bytes, int16s[4]):
| | | | |  20ecb3d: 6e 04 00 04 00 04 a1 07                         [n.......]
| | | | | ColorTempMeasured = 3200
| | | | | - Tag 0x0055 (2 bytes, int16s[1]):
| | | | |  20ecb45: 80 0c                                           [..]
| | | | | WB_RGGBLevelsDaylight = 1549 1024 1024 1316
| | | | | - Tag 0x0088 (8 bytes, int16s[4]):
| | | | |  20ecbab: 0d 06 00 04 00 04 24 05                         [......$.]
| | | | | ColorTempDaylight = 5200
| | | | | - Tag 0x008c (2 bytes, int16s[1]):
| | | | |  20ecbb3: 50 14                                           [P.]
| | | | | WB_RGGBLevelsShade = 1792 1024 1024 1147
| | | | | - Tag 0x008d (8 bytes, int16s[4]):
| | | | |  20ecbb5: 00 07 00 04 00 04 7b 04                         [......{.]
| | | | | ColorTempShade = 7000
| | | | | - Tag 0x0091 (2 bytes, int16s[1]):
| | | | |  20ecbbd: 58 1b                                           [X.]
| | | | | WB_RGGBLevelsCloudy = 1670 1024 1024 1229
| | | | | - Tag 0x0092 (8 bytes, int16s[4]):
| | | | |  20ecbbf: 86 06 00 04 00 04 cd 04                         [........]
| | | | | ColorTempCloudy = 6000
| | | | | - Tag 0x0096 (2 bytes, int16s[1]):
| | | | |  20ecbc7: 70 17                                           [p.]
| | | | | WB_RGGBLevelsTungsten = 1104 1024 1024 1879
| | | | | - Tag 0x0097 (8 bytes, int16s[4]):
| | | | |  20ecbc9: 50 04 00 04 00 04 57 07                         [P.....W.]
| | | | | ColorTempTungsten = 3200
| | | | | - Tag 0x009b (2 bytes, int16s[1]):
| | | | |  20ecbd1: 80 0c                                           [..]
| | | | | WB_RGGBLevelsFluorescent = 1303 1024 1024 1771
| | | | | - Tag 0x009c (8 bytes, int16s[4]):
| | | | |  20ecbd3: 17 05 00 04 00 04 eb 06                         [........]
| | | | | ColorTempFluorescent = 3687
| | | | | - Tag 0x00a0 (2 bytes, int16s[1]):
| | | | |  20ecbdb: 67 0e                                           [g.]
| | | | | WB_RGGBLevelsKelvin = 1549 1024 1024 1316
| | | | | - Tag 0x00a1 (8 bytes, int16s[4]):
| | | | |  20ecbdd: 0d 06 00 04 00 04 24 05                         [......$.]
| | | | | ColorTempKelvin = 5200
| | | | | - Tag 0x00a5 (2 bytes, int16s[1]):
| | | | |  20ecbe5: 50 14                                           [P.]
| | | | | WB_RGGBLevelsFlash = 1697 1024 1024 1218
| | | | | - Tag 0x00a6 (8 bytes, int16s[4]):
| | | | |  20ecbe7: a1 06 00 04 00 04 c2 04                         [........]
| | | | | ColorTempFlash = 6166
| | | | | - Tag 0x00aa (2 bytes, int16s[1]):
| | | | |  20ecbef: 16 18                                           [..]
| | | | | PerChannelBlackLevel = 2049 2049 2049 2049
| | | | | - Tag 0x0149 (8 bytes, int16u[4]):
| | | | |  20ecd2d: 01 08 01 08 01 08 01 08                         [........]
| | | | | NormalWhiteLevel = 10336
| | | | | - Tag 0x031c (2 bytes, int16u[1]):
| | | | |  20ed0d3: 60 28                                           [`(]
| | | | | SpecularWhiteLevel = 10749
| | | | | - Tag 0x031d (2 bytes, int16u[1]):
| | | | |  20ed0d5: fd 29                                           [.)]
| | | | | LinearityUpperMargin = 10025
| | | | | - Tag 0x031e (2 bytes, int16u[1]):
| | | | |  20ed0d7: 29 27                                           [)']
| | | | 1)  Flavor = .~. .?_...........?_...........?_...........@`...........?_.......[snip]
| | | |     - Tag 0x4005 (32476 bytes, undef[32476]):
| | | |      20ed8d3: dc 7e 00 00 0b 00 00 20 00 00 00 00 00 00 00 00 [.~..... ........]
| | | |      20ed8e3: 00 00 00 00 00 00 00 00 00 00 00 00 00 00 00 00 [................]
| | | |      20ed8f3: 00 00 00 00 00 00 00 00 00 00 00 00 00 00 00 00 [................]
| | | |      20ed903: 00 00 00 00 00 00 00 00 00 00 00 00 00 00 00 00 [................]
| | | |      20ed913: 00 00 00 00 00 00 00 00 00 00 00 00 00 00 00 00 [................]
| | | |         [snip 32396 bytes]
| | | | 2)  CanonCameraInfoUnknown (SubDirectory) -->
| | | |     - Tag 0x000d (1536 bytes, undef[1536]):
| | | |      20f57af: aa aa 28 12 e0 0a 00 20 00 12 00 0b 08 fd 70 f9 [..(.... ......p.]
| | | |      20f57bf: 00 00 00 00 00 00 01 00 00 00 00 00 00 00 00 00 [................]
| | | |      20f57cf: 00 00 00 00 00 00 00 00 00 00 00 00 00 00 00 00 [................]
| | | |      20f57df: 00 00 01 00 00 00 00 00 00 00 00 00 00 00 00 00 [................]
| | | |      20f57ef: 00 00 00 00 00 00 00 00 00 00 00 a5 9a 00 00 00 [................]
| | | |         [snip 1456 bytes]
| | | | + [BinaryData directory, 1536 bytes]
+ [CTMD type 9 directory, 1480 bytes]
| TimedExif9 (SubDirectory) -->
| - Tag 0x0009 (1480 bytes):
|  20f5dbb: c8 05 00 00 7c 92 00 00 49 49 2a 00 08 00 00 00 [....|...II*.....]
|  20f5dcb: 03 00 15 40 07 00 78 02 00 00 2e 00 00 00 33 40 [...@..x.......3@]
|  20f5ddb: 07 00 f8 01 00 00 a6 02 00 00 2e 40 07 00 22 01 [...........@..".]
|  20f5deb: 00 00 9e 04 00 00 20 30 78 02 01 00 00 00 01 00 [...... 0x.......]
|  20f5dfb: 01 00 01 00 00 00 11 00 00 00 64 00 64 00 cc 04 [..........d.d...]
|     [snip 1400 bytes]
| + [TimedExif directory, 1480 bytes]
| | MakerNoteCanon (SubDirectory) -->
| | - Tag 0x927c (1472 bytes):
| |  20f5dc3: 49 49 2a 00 08 00 00 00 03 00 15 40 07 00 78 02 [II*........@..x.]
| |  20f5dd3: 00 00 2e 00 00 00 33 40 07 00 f8 01 00 00 a6 02 [......3@........]
| |  20f5de3: 00 00 2e 40 07 00 22 01 00 00 9e 04 00 00 20 30 [...@.."....... 0]
| |  20f5df3: 78 02 01 00 00 00 01 00 01 00 01 00 00 00 11 00 [x...............]
| |  20f5e03: 00 00 64 00 64 00 cc 04 80 00 00 00 00 00 88 0e [..d.d...........]
| |     [snip 1392 bytes]
| | + [TIFF directory]
| | | + [Canon directory with 3 entries]
| | | | 0)  VignettingCorrUnknown1 (SubDirectory) -->
| | | |     - Tag 0x4015 (632 bytes, undef[632]):
| | | |      20f5df1: 20 30 78 02 01 00 00 00 01 00 01 00 01 00 00 00 [ 0x.............]
| | | |      20f5e01: 11 00 00 00 64 00 64 00 cc 04 80 00 00 00 00 00 [....d.d.........]
| | | |      20f5e11: 88 0e 70 17 a0 0f 00 00 00 00 00 00 00 00 00 00 [..p.............]
| | | |      20f5e21: 00 00 00 00 00 00 00 00 00 00 00 00 00 00 00 00 [................]
| | | |      20f5e31: 00 00 00 00 00 00 00 00 00 00 00 00 00 00 00 00 [................]
| | | |         [snip 552 bytes]
| | | | + [BinaryData directory, 632 bytes]
| | | | | VignettingCorrVersion = 32
| | | | | - Tag 0x0000 (1 bytes, int8u[1]):
| | | | |  20f5df1: 20                                              [ ]
| | | | 1)  Canon_0x4033 = 
| | | |     - Tag 0x4033 (504 bytes, undef[504]):
| | | |      20f6069: 00 00 00 00 00 00 00 00 00 00 00 00 00 00 00 00 [................]
| | | |      20f6079: 00 00 00 00 00 00 00 00 00 00 00 00 00 00 00 00 [................]
| | | |      20f6089: 00 00 00 00 00 00 00 00 00 00 00 00 00 00 00 00 [................]
| | | |      20f6099: 00 00 00 00 00 00 00 00 00 00 00 00 00 00 00 00 [................]
| | | |      20f60a9: 00 00 00 00 00 00 00 00 00 00 00 00 00 00 00 00 [................]
| | | |         [snip 424 bytes]
| | | | 2)  Canon_0x402e = ."..@......?...,I.......%-........*.2-......I.w.....%.......[snip]
| | | |     - Tag 0x402e (290 bytes, undef[290]):
| | | |      20f6261: 00 10 22 01 00 00 00 00 00 00 00 00 00 00 00 00 [..".............]
| | | |      20f6271: 00 00 03 00 00 40 00 00 00 00 00 00 00 00 00 00 [.....@..........]
| | | |      20f6281: 01 00 fe ff 0c fe f1 3f 00 00 0f 00 16 00 1d 00 [.......?........]
| | | |      20f6291: 2c 00 49 00 93 00 c0 d2 05 00 00 00 00 00 00 00 [,.I.............]
| | | |      20f62a1: 00 00 00 00 17 00 80 fd 25 2d c2 02 00 00 85 00 [........%-......]
| | | |         [snip 210 bytes]
--------------------------
  XMP (SubDirectory) -->
  - Tag 'uuid' (65552 bytes):
      5f48: be 7a cf cb 97 a9 42 e8 9c 71 99 94 91 e3 af ac [.z....B..q......]
      5f58: 3c 3f 78 70 61 63 6b 65 74 20 62 65 67 69 6e 3d [<?xpacket begin=]
      5f68: 27 ef bb bf 27 20 69 64 3d 27 57 35 4d 30 4d 70 ['...' id='W5M0Mp]
      5f78: 43 65 68 69 48 7a 72 65 53 7a 4e 54 63 7a 6b 63 [CehiHzreSzNTczkc]
      5f88: 39 64 27 3f 3e 3c 78 3a 78 6d 70 6d 65 74 61 20 [9d'?><x:xmpmeta ]
      [snip 65472 bytes]
  + [XMP directory, 65536 bytes]
  | Rating = 0
  | - Tag 'x:xmpmeta/rdf:RDF/rdf:Description/xmp:Rating'
  PreviewImage = ..+^..K.....@nM.....PRVW..T.8.........................................[snip]
  - Tag 'uuid' (320471 bytes):
     15f60: ea f4 2b 5e 1c 98 4b 88 b9 fb b7 dc 40 6e 4d 16 [..+^..K.....@nM.]
     15f70: 00 00 00 00 00 00 00 01 00 04 e3 bf 50 52 56 57 [............PRVW]
     15f80: 00 00 00 00 00 01 06 54 04 38 00 01 00 04 e3 a7 [.......T.8......]
     15f90: ff d8 ff db 00 84 00 03 02 02 03 02 02 03 03 02 [................]
     15fa0: 03 03 03 03 04 05 08 05 05 04 04 05 09 07 07 06 [................]
      [snip 320391 bytes]
  MovieDataSize = 34152512
  MovieDataOffset = 410439
  MovieData
  - Tag 'mdat' at offset 0x64347 (34152512 bytes)
