  ExifToolVersion = 10.87
  FileName = canon_eos_m50_23.cr3
  Directory = .
  FileSize = 40841697
  FileModifyDate = 1521636185
  FileAccessDate = 1521636166
  FileType = CR3
  FileTypeExtension = CR3
  MIMEType = image/x-canon-cr3
  FileType (SubDirectory) -->
  - Tag 'ftyp' (16 bytes):
      0008: 63 72 78 20 00 00 00 01 63 72 78 20 69 73 6f 6d [crx ....crx isom]
  + [BinaryData directory, 16 bytes]
  | MajorBrand = crx 
  | - Tag 0x0000 (4 bytes, undef[4]):
  |     0008: 63 72 78 20                                     [crx ]
  | MinorVersion = .
  | - Tag 0x0001 (4 bytes, undef[4]):
  |     000c: 00 00 00 01                                     [....]
  | CompatibleBrands = crx isom
  | - Tag 0x0002 (8 bytes, undef[8]):
  |     0010: 63 72 78 20 69 73 6f 6d                         [crx isom]
  Movie (SubDirectory) -->
  - Tag 'moov' (28328 bytes):
      0020: 00 00 66 00 75 75 69 64 85 c0 b6 87 82 0f 11 e0 [..f.uuid........]
      0030: 81 11 f4 ce 46 2b 6a 48 00 00 00 26 43 4e 43 56 [....F+jH...&CNCV]
      0040: 43 61 6e 6f 6e 43 52 33 5f 30 30 31 2f 30 30 2e [CanonCR3_001/00.]
      0050: 30 39 2e 30 30 2f 30 30 2e 30 30 2e 30 30 00 00 [09.00/00.00.00..]
      0060: 00 5c 43 43 54 50 00 00 00 00 00 00 00 01 00 00 [.\CCTP..........]
      [snip 28248 bytes]
  + [Movie directory]
  | UUID-Canon (SubDirectory) -->
  | - Tag 'uuid' (26104 bytes):
  |     0028: 85 c0 b6 87 82 0f 11 e0 81 11 f4 ce 46 2b 6a 48 [............F+jH]
  |     0038: 00 00 00 26 43 4e 43 56 43 61 6e 6f 6e 43 52 33 [...&CNCVCanonCR3]
  |     0048: 5f 30 30 31 2f 30 30 2e 30 39 2e 30 30 2f 30 30 [_001/00.09.00/00]
  |     0058: 2e 30 30 2e 30 30 00 00 00 5c 43 43 54 50 00 00 [.00.00...\CCTP..]
  |     0068: 00 00 00 00 00 01 00 00 00 03 00 00 00 18 43 43 [..............CC]
  |     [snip 26024 bytes]
  | + [UUID-Canon directory]
  | | CompressorVersion = CanonCR3_001/00.09.00/00.00.00
  | | - Tag 'CNCV' (30 bytes):
  | |     0040: 43 61 6e 6f 6e 43 52 33 5f 30 30 31 2f 30 30 2e [CanonCR3_001/00.]
  | |     0050: 30 39 2e 30 30 2f 30 30 2e 30 30 2e 30 30       [09.00/00.00.00]
  | | CanonCCTP (SubDirectory) -->
  | | - Tag 'CCTP' (84 bytes):
  | |     0066: 00 00 00 00 00 00 00 01 00 00 00 03 00 00 00 18 [................]
  | |     0076: 43 43 44 54 00 00 00 00 00 00 00 10 00 00 00 00 [CCDT............]
  | |     0086: 00 00 00 01 00 00 00 18 43 43 44 54 00 00 00 00 [........CCDT....]
  | |     0096: 00 00 00 01 00 00 00 00 00 00 00 02 00 00 00 18 [................]
  | |     00a6: 43 43 44 54 00 00 00 00 00 00 00 00 00 00 00 00 [CCDT............]
  | |     00b6: 00 00 00 03                                     [....]
  | | + [CanonCCTP directory]
  | | | Unknown_CCDT = ..
  | | | - Tag 'CCDT' (16 bytes):
  | | |     007a: 00 00 00 00 00 00 00 10 00 00 00 00 00 00 00 01 [................]
  | | | Unknown_CCDT = ..
  | | | - Tag 'CCDT' (16 bytes):
  | | |     0092: 00 00 00 00 00 00 00 01 00 00 00 00 00 00 00 02 [................]
  | | | Unknown_CCDT = .
  | | | - Tag 'CCDT' (16 bytes):
  | | |     00aa: 00 00 00 00 00 00 00 00 00 00 00 00 00 00 00 03 [................]
  | | Unknown_CTBO = ..n.....n......7i.g.x.
  | | - Tag 'CTBO' (84 bytes):
  | |     00c2: 00 00 00 04 00 00 00 01 00 00 00 00 00 00 6e c8 [..............n.]
  | |     00d2: 00 00 00 00 00 01 00 18 00 00 00 02 00 00 00 00 [................]
  | |     00e2: 00 01 6e e0 00 00 00 00 00 05 c8 89 00 00 00 03 [..n.............]
  | |     00f2: 00 00 00 00 00 07 37 69 00 00 00 00 02 67 fa 78 [......7i.....g.x]
  | |     0102: 00 00 00 04 00 00 00 00 00 00 00 00 00 00 00 00 [................]
  | |     0112: 00 00 00 00                                     [....]
  | | Unknown_free = 
  | | - Tag 'free' (2 bytes):
  | |     011e: 00 00                                           [..]
  | | IFD0 (SubDirectory) -->
  | | - Tag 'CMT1' (384 bytes):
  | |     0128: 49 49 2a 00 08 00 00 00 0d 00 00 01 03 00 01 00 [II*.............]
  | |     0138: 00 00 70 17 00 00 01 01 03 00 01 00 00 00 a0 0f [..p.............]
  | |     0148: 00 00 02 01 03 00 03 00 00 00 aa 00 00 00 03 01 [................]
  | |     0158: 03 00 01 00 00 00 06 00 00 00 0f 01 02 00 06 00 [................]
  | |     0168: 00 00 b0 00 00 00 10 01 02 00 0e 00 00 00 b6 00 [................]
  | |     [snip 304 bytes]
  | | + [TIFF directory]
  | | | ExifByteOrder = II
  | | | + [IFD0 directory with 13 entries]
  | | | | 0)  ImageWidth = 6000
  | | | |     - Tag 0x0100 (2 bytes, int16u[1]):
  | | | |         013a: 70 17                                           [p.]
  | | | | 1)  ImageHeight = 4000
  | | | |     - Tag 0x0101 (2 bytes, int16u[1]):
  | | | |         0146: a0 0f                                           [..]
  | | | | 2)  BitsPerSample = 8 8 8
  | | | |     - Tag 0x0102 (6 bytes, int16u[3]):
  | | | |         01d2: 08 00 08 00 08 00                               [......]
  | | | | 3)  Compression = 6
  | | | |     - Tag 0x0103 (2 bytes, int16u[1]):
  | | | |         015e: 06 00                                           [..]
  | | | | 4)  Make = Canon
  | | | |     - Tag 0x010f (6 bytes, string[6]):
  | | | |         01d8: 43 61 6e 6f 6e 00                               [Canon.]
  | | | | 5)  Model = Canon EOS M50
  | | | |     - Tag 0x0110 (14 bytes, string[14]):
  | | | |         01de: 43 61 6e 6f 6e 20 45 4f 53 20 4d 35 30 00       [Canon EOS M50.]
  | | | | 6)  Orientation = 1
  | | | |     - Tag 0x0112 (2 bytes, int16u[1]):
  | | | |         0182: 01 00                                           [..]
  | | | | 7)  XResolution = 72 (72/1)
  | | | |     - Tag 0x011a (8 bytes, rational64u[1]):
  | | | |         01fe: 48 00 00 00 01 00 00 00                         [H.......]
  | | | | 8)  YResolution = 72 (72/1)
  | | | |     - Tag 0x011b (8 bytes, rational64u[1]):
  | | | |         0206: 48 00 00 00 01 00 00 00                         [H.......]
  | | | | 9)  ResolutionUnit = 2
  | | | |     - Tag 0x0128 (2 bytes, int16u[1]):
  | | | |         01a6: 02 00                                           [..]
  | | | | 10) ModifyDate = 2018:02:21 12:11:45
  | | | |     - Tag 0x0132 (20 bytes, string[20]):
  | | | |         020e: 32 30 31 38 3a 30 32 3a 32 31 20 31 32 3a 31 31 [2018:02:21 12:11]
  | | | |         021e: 3a 34 35 00                                     [:45.]
  | | | | 11) Artist = 
  | | | |     - Tag 0x013b (1 bytes, string[1]):
  | | | |         01be: 00                                              [.]
  | | | | 12) Copyright = 
  | | | |     - Tag 0x8298 (1 bytes, string[1] read as undef[1]):
  | | | |         01ca: 00                                              [.]
  | | ExifIFD (SubDirectory) -->
  | | - Tag 'CMT2' (1056 bytes):
  | |     02b0: 49 49 2a 00 08 00 00 00 27 00 9a 82 05 00 01 00 [II*.....'.......]
  | |     02c0: 00 00 e2 01 00 00 9d 82 05 00 01 00 00 00 ea 01 [................]
  | |     02d0: 00 00 22 88 03 00 01 00 00 00 03 00 00 00 27 88 [.."...........'.]
  | |     02e0: 03 00 01 00 00 00 80 3e 00 00 30 88 03 00 01 00 [.......>..0.....]
  | |     02f0: 00 00 02 00 00 00 32 88 04 00 01 00 00 00 80 3e [......2........>]
  | |     [snip 976 bytes]
  | | + [TIFF directory]
  | | | ExifByteOrder = II
  | | | + [ExifIFD directory with 39 entries]
  | | | | 0)  ExposureTime = 0.01666666667 (1/60)
  | | | |     - Tag 0x829a (8 bytes, rational64u[1]):
  | | | |         0492: 01 00 00 00 3c 00 00 00                         [....<...]
  | | | | 1)  FNumber = 5.6 (56/10)
  | | | |     - Tag 0x829d (8 bytes, rational64u[1]):
  | | | |         049a: 38 00 00 00 0a 00 00 00                         [8.......]
  | | | | 2)  ExposureProgram = 3
  | | | |     - Tag 0x8822 (2 bytes, int16u[1]):
  | | | |         02da: 03 00                                           [..]
  | | | | 3)  ISO = 16000
  | | | |     - Tag 0x8827 (2 bytes, int16u[1]):
  | | | |         02e6: 80 3e                                           [.>]
  | | | | 4)  SensitivityType = 2
  | | | |     - Tag 0x8830 (2 bytes, int16u[1]):
  | | | |         02f2: 02 00                                           [..]
  | | | | 5)  RecommendedExposureIndex = 16000
  | | | |     - Tag 0x8832 (4 bytes, int32u[1]):
  | | | |         02fe: 80 3e 00 00                                     [.>..]
  | | | | 6)  ExifVersion = 0231
  | | | |     - Tag 0x9000 (4 bytes, undef[4]):
  | | | |         030a: 30 32 33 31                                     [0231]
  | | | | 7)  DateTimeOriginal = 2018:02:21 12:11:45
  | | | |     - Tag 0x9003 (20 bytes, string[20]):
  | | | |         04a2: 32 30 31 38 3a 30 32 3a 32 31 20 31 32 3a 31 31 [2018:02:21 12:11]
  | | | |         04b2: 3a 34 35 00                                     [:45.]
  | | | | 8)  CreateDate = 2018:02:21 12:11:45
  | | | |     - Tag 0x9004 (20 bytes, string[20]):
  | | | |         04b6: 32 30 31 38 3a 30 32 3a 32 31 20 31 32 3a 31 31 [2018:02:21 12:11]
  | | | |         04c6: 3a 34 35 00                                     [:45.]
  | | | | 9)  OffsetTime = +00:00
  | | | |     - Tag 0x9010 (7 bytes, string[7]):
  | | | |         06b8: 2b 30 30 3a 30 30 00                            [+00:00.]
  | | | | 10) OffsetTimeOriginal = +00:00
  | | | |     - Tag 0x9011 (7 bytes, string[7]):
  | | | |         06bf: 2b 30 30 3a 30 30 00                            [+00:00.]
  | | | | 11) OffsetTimeDigitized = +00:00
  | | | |     - Tag 0x9012 (7 bytes, string[7]):
  | | | |         06c6: 2b 30 30 3a 30 30 00                            [+00:00.]
  | | | | 12) ComponentsConfiguration = 1 2 3 0
  | | | |     - Tag 0x9101 (4 bytes, undef[4] read as int8u[4]):
  | | | |         0352: 01 02 03 00                                     [....]
  | | | | 13) ShutterSpeedValue = 6 (393216/65536)
  | | | |     - Tag 0x9201 (8 bytes, rational64s[1]):
  | | | |         04ca: 00 00 06 00 00 00 01 00                         [........]
  | | | | 14) ApertureValue = 5 (327680/65536)
  | | | |     - Tag 0x9202 (8 bytes, rational64u[1]):
  | | | |         04d2: 00 00 05 00 00 00 01 00                         [........]
  | | | | 15) ExposureCompensation = 0 (0/1)
  | | | |     - Tag 0x9204 (8 bytes, rational64s[1]):
  | | | |         04da: 00 00 00 00 01 00 00 00                         [........]
  | | | | 16) MeteringMode = 5
  | | | |     - Tag 0x9207 (2 bytes, int16u[1]):
  | | | |         0382: 05 00                                           [..]
  | | | | 17) Flash = 0
  | | | |     - Tag 0x9209 (2 bytes, int16u[1]):
  | | | |         038e: 00 00                                           [..]
  | | | | 18) FocalLength = 39 (39/1)
  | | | |     - Tag 0x920a (8 bytes, rational64u[1]):
  | | | |         04e2: 27 00 00 00 01 00 00 00                         ['.......]
  | | | | 19) UserComment = 
  | | | |     - Tag 0x9286 (264 bytes, undef[264]):
  | | | |         04ea: 00 00 00 00 00 00 00 00 00 00 00 00 00 00 00 00 [................]
  | | | |         04fa: 00 00 00 00 00 00 00 00 00 00 00 00 00 00 00 00 [................]
  | | | |         050a: 00 00 00 00 00 00 00 00 00 00 00 00 00 00 00 00 [................]
  | | | |         051a: 00 00 00 00 00 00 00 00 00 00 00 00 00 00 00 00 [................]
  | | | |         052a: 00 00 00 00 00 00 00 00 00 00 00 00 00 00 00 00 [................]
  | | | |         [snip 184 bytes]
  | | | | 20) SubSecTime = 37
  | | | |     - Tag 0x9290 (3 bytes, string[3]):
  | | | |         03b2: 33 37 00                                        [37.]
  | | | | 21) SubSecTimeOriginal = 37
  | | | |     - Tag 0x9291 (3 bytes, string[3]):
  | | | |         03be: 33 37 00                                        [37.]
  | | | | 22) SubSecTimeDigitized = 37
  | | | |     - Tag 0x9292 (3 bytes, string[3]):
  | | | |         03ca: 33 37 00                                        [37.]
  | | | | 23) FlashpixVersion = 0100
  | | | |     - Tag 0xa000 (4 bytes, undef[4]):
  | | | |         03d6: 30 31 30 30                                     [0100]
  | | | | 24) ColorSpace = 1
  | | | |     - Tag 0xa001 (2 bytes, int16u[1]):
  | | | |         03e2: 01 00                                           [..]
  | | | | 25) ExifImageWidth = 6000
  | | | |     - Tag 0xa002 (2 bytes, int16u[1]):
  | | | |         03ee: 70 17                                           [p.]
  | | | | 26) ExifImageHeight = 4000
  | | | |     - Tag 0xa003 (2 bytes, int16u[1]):
  | | | |         03fa: a0 0f                                           [..]
  | | | | 27) FocalPlaneXResolution = 6514.65798 (6000000/921)
  | | | |     - Tag 0xa20e (8 bytes, rational64u[1]):
  | | | |         05f2: 80 8d 5b 00 99 03 00 00                         [..[.....]
  | | | | 28) FocalPlaneYResolution = 6734.006734 (4000000/594)
  | | | |     - Tag 0xa20f (8 bytes, rational64u[1]):
  | | | |         05fa: 00 09 3d 00 52 02 00 00                         [..=.R...]
  | | | | 29) FocalPlaneResolutionUnit = 2
  | | | |     - Tag 0xa210 (2 bytes, int16u[1]):
  | | | |         041e: 02 00                                           [..]
  | | | | 30) CustomRendered = 0
  | | | |     - Tag 0xa401 (2 bytes, int16u[1]):
  | | | |         042a: 00 00                                           [..]
  | | | | 31) ExposureMode = 0
  | | | |     - Tag 0xa402 (2 bytes, int16u[1]):
  | | | |         0436: 00 00                                           [..]
  | | | | 32) WhiteBalance = 0
  | | | |     - Tag 0xa403 (2 bytes, int16u[1]):
  | | | |         0442: 00 00                                           [..]
  | | | | 33) SceneCaptureType = 0
  | | | |     - Tag 0xa406 (2 bytes, int16u[1]):
  | | | |         044e: 00 00                                           [..]
  | | | | 34) OwnerName = 
  | | | |     - Tag 0xa430 (1 bytes, string[1]):
  | | | |         045a: 00                                              [.]
  | | | | 35) SerialNumber = 613040000565
  | | | |     - Tag 0xa431 (13 bytes, string[13]):
  | | | |         0622: 36 31 33 30 34 30 30 30 30 35 36 35 00          [613040000565.]
  | | | | 36) LensInfo = 15 45 0 0 (15/1 45/1 0/1 0/1)
  | | | |     - Tag 0xa432 (32 bytes, rational64u[4]):
  | | | |         0642: 0f 00 00 00 01 00 00 00 2d 00 00 00 01 00 00 00 [........-.......]
  | | | |         0652: 00 00 00 00 01 00 00 00 00 00 00 00 01 00 00 00 [................]
  | | | | 37) LensModel = EF-M15-45mm f/3.5-6.3 IS STM
  | | | |     - Tag 0xa434 (29 bytes, string[29]):
  | | | |         0662: 45 46 2d 4d 31 35 2d 34 35 6d 6d 20 66 2f 33 2e [EF-M15-45mm f/3.]
  | | | |         0672: 35 2d 36 2e 33 20 49 53 20 53 54 4d 00          [5-6.3 IS STM.]
  | | | | 38) LensSerialNumber = 0000000000
  | | | |     - Tag 0xa435 (11 bytes, string[11]):
  | | | |         06ac: 30 30 30 30 30 30 30 30 30 30 00                [0000000000.]
  | | MakerNoteCanon (SubDirectory) -->
  | | - Tag 'CMT3' (5168 bytes):
  | |     06d8: 49 49 2a 00 08 00 00 00 2f 00 01 00 03 00 31 00 [II*...../.....1.]
  | |     06e8: 00 00 42 02 00 00 02 00 03 00 04 00 00 00 a4 02 [..B.............]
  | |     06f8: 00 00 03 00 03 00 04 00 00 00 ac 02 00 00 04 00 [................]
  | |     0708: 03 00 22 00 00 00 b4 02 00 00 06 00 02 00 0e 00 [..".............]
  | |     0718: 00 00 f8 02 00 00 07 00 02 00 18 00 00 00 18 03 [................]
  | |     [snip 5088 bytes]
  | | + [TIFF directory]
  | | | + [Canon directory with 47 entries]
  | | | | 0)  CanonCameraSettings (SubDirectory) -->
  | | | |     - Tag 0x0001 (98 bytes, int16u[49] read as undef[98]):
  | | | |         091a: 62 00 02 00 00 00 04 00 00 00 00 00 00 00 00 01 [b...............]
  | | | |         092a: 00 00 0d 00 00 00 01 00 00 00 00 00 00 00 ff 7f [................]
  | | | |         093a: 0f 00 03 00 02 00 00 00 03 00 ff ff 39 10 2d 00 [............9.-.]
  | | | |         094a: 0f 00 01 00 a4 00 50 01 00 00 08 00 00 00 00 00 [......P.........]
  | | | |         095a: ff ff ff ff ff ff 00 00 00 00 00 00 00 00 ff ff [................]
  | | | |         [snip 18 bytes]
  | | | | + [BinaryData directory, 98 bytes]
  | | | | | MacroMode = 2
  | | | | | - Tag 0x0001 (2 bytes, int16s[1]):
  | | | | |     091c: 02 00                                           [..]
  | | | | | SelfTimer = 0
  | | | | | - Tag 0x0002 (2 bytes, int16s[1]):
  | | | | |     091e: 00 00                                           [..]
  | | | | | Quality = 4
  | | | | | - Tag 0x0003 (2 bytes, int16s[1]):
  | | | | |     0920: 04 00                                           [..]
  | | | | | CanonFlashMode = 0
  | | | | | - Tag 0x0004 (2 bytes, int16s[1]):
  | | | | |     0922: 00 00                                           [..]
  | | | | | ContinuousDrive = 0
  | | | | | - Tag 0x0005 (2 bytes, int16s[1]):
  | | | | |     0924: 00 00                                           [..]
  | | | | | FocusMode = 256
  | | | | | - Tag 0x0007 (2 bytes, int16s[1]):
  | | | | |     0928: 00 01                                           [..]
  | | | | | RecordMode = 13
  | | | | | - Tag 0x0009 (2 bytes, int16s[1]):
  | | | | |     092c: 0d 00                                           [..]
  | | | | | CanonImageSize = 0
  | | | | | - Tag 0x000a (2 bytes, int16s[1]):
  | | | | |     092e: 00 00                                           [..]
  | | | | | EasyMode = 1
  | | | | | - Tag 0x000b (2 bytes, int16s[1]):
  | | | | |     0930: 01 00                                           [..]
  | | | | | DigitalZoom = 0
  | | | | | - Tag 0x000c (2 bytes, int16s[1]):
  | | | | |     0932: 00 00                                           [..]
  | | | | | Contrast = 0
  | | | | | - Tag 0x000d (2 bytes, int16s[1]):
  | | | | |     0934: 00 00                                           [..]
  | | | | | Saturation = 0
  | | | | | - Tag 0x000e (2 bytes, int16s[1]):
  | | | | |     0936: 00 00                                           [..]
  | | | | | Sharpness = 32767
  | | | | | - Tag 0x000f (2 bytes, int16s[1]):
  | | | | |     0938: ff 7f                                           [..]
  | | | | | CameraISO = 15
  | | | | | - Tag 0x0010 (2 bytes, int16s[1]):
  | | | | |     093a: 0f 00                                           [..]
  | | | | | MeteringMode = 3
  | | | | | - Tag 0x0011 (2 bytes, int16s[1]):
  | | | | |     093c: 03 00                                           [..]
  | | | | | FocusRange = 2
  | | | | | - Tag 0x0012 (2 bytes, int16s[1]):
  | | | | |     093e: 02 00                                           [..]
  | | | | | AFPoint = 0
  | | | | | - Tag 0x0013 (2 bytes, int16s[1]):
  | | | | |     0940: 00 00                                           [..]
  | | | | | CanonExposureMode = 3
  | | | | | - Tag 0x0014 (2 bytes, int16s[1]):
  | | | | |     0942: 03 00                                           [..]
  | | | | | LensType = 4153
  | | | | | - Tag 0x0016 (2 bytes, int16u[1]):
  | | | | |     0946: 39 10                                           [9.]
  | | | | | MaxFocalLength = 45
  | | | | | - Tag 0x0017 (2 bytes, int16u[1]):
  | | | | |     0948: 2d 00                                           [-.]
  | | | | | MinFocalLength = 15
  | | | | | - Tag 0x0018 (2 bytes, int16u[1]):
  | | | | |     094a: 0f 00                                           [..]
  | | | | | FocalUnits = 1
  | | | | | - Tag 0x0019 (2 bytes, int16s[1]):
  | | | | |     094c: 01 00                                           [..]
  | | | | | MaxAperture = 164
  | | | | | - Tag 0x001a (2 bytes, int16s[1]):
  | | | | |     094e: a4 00                                           [..]
  | | | | | MinAperture = 336
  | | | | | - Tag 0x001b (2 bytes, int16s[1]):
  | | | | |     0950: 50 01                                           [P.]
  | | | | | FlashActivity = 0
  | | | | | - Tag 0x001c (2 bytes, int16s[1]):
  | | | | |     0952: 00 00                                           [..]
  | | | | | FlashBits = 8
  | | | | | - Tag 0x001d (2 bytes, int16s[1]):
  | | | | |     0954: 08 00                                           [..]
  | | | | | FocusContinuous = -1
  | | | | | - Tag 0x0020 (2 bytes, int16s[1]):
  | | | | |     095a: ff ff                                           [..]
  | | | | | AESetting = -1
  | | | | | - Tag 0x0021 (2 bytes, int16s[1]):
  | | | | |     095c: ff ff                                           [..]
  | | | | | ImageStabilization = -1
  | | | | | - Tag 0x0022 (2 bytes, int16s[1]):
  | | | | |     095e: ff ff                                           [..]
  | | | | | DisplayAperture = 0
  | | | | | - Tag 0x0023 (2 bytes, int16s[1]):
  | | | | |     0960: 00 00                                           [..]
  | | | | | ZoomSourceWidth = 0
  | | | | | - Tag 0x0024 (2 bytes, int16s[1]):
  | | | | |     0962: 00 00                                           [..]
  | | | | | ZoomTargetWidth = 0
  | | | | | - Tag 0x0025 (2 bytes, int16s[1]):
  | | | | |     0964: 00 00                                           [..]
  | | | | | SpotMeteringMode = -1
  | | | | | - Tag 0x0027 (2 bytes, int16s[1]):
  | | | | |     0968: ff ff                                           [..]
  | | | | | PhotoEffect = -1
  | | | | | - Tag 0x0028 (2 bytes, int16s[1]):
  | | | | |     096a: ff ff                                           [..]
  | | | | | ManualFlashOutput = 0
  | | | | | - Tag 0x0029 (2 bytes, int16s[1]):
  | | | | |     096c: 00 00                                           [..]
  | | | | | ColorTone = 0
  | | | | | - Tag 0x002a (2 bytes, int16s[1]):
  | | | | |     096e: 00 00                                           [..]
  | | | | | SRAWQuality = 0
  | | | | | - Tag 0x002e (2 bytes, int16s[1]):
  | | | | |     0976: 00 00                                           [..]
  | | | | 1)  CanonFocalLength (SubDirectory) -->
  | | | |     - Tag 0x0002 (8 bytes, int16u[4] read as undef[8]):
  | | | |         097c: 00 00 27 00 ae 63 1d 48                         [..'..c.H]
  | | | | + [BinaryData directory, 8 bytes]
  | | | | | FocalType = 0
  | | | | | - Tag 0x0000 (2 bytes, int16u[1]):
  | | | | |     097c: 00 00                                           [..]
  | | | | | FocalLength = 39
  | | | | | - Tag 0x0001 (2 bytes, int16u[1]):
  | | | | |     097e: 27 00                                           ['.]
  | | | | 2)  CanonFlashInfo = 100 0 0 0
  | | | |     - Tag 0x0003 (8 bytes, int16u[4]):
  | | | |         0984: 64 00 00 00 00 00 00 00                         [d.......]
  | | | | 3)  CanonShotInfo (SubDirectory) -->
  | | | |     - Tag 0x0004 (68 bytes, int16u[34] read as undef[68]):
  | | | |         098c: 44 00 00 00 8c 01 dc ff a0 00 c0 00 00 00 00 00 [D...............]
  | | | |         099c: 03 00 00 00 08 00 08 00 a8 00 00 00 00 00 00 00 [................]
  | | | |         09ac: 00 00 00 00 01 00 00 00 00 00 a4 00 c4 00 59 00 [..............Y.]
  | | | |         09bc: 00 00 00 00 f8 00 00 00 ff ff ff ff ff ff 00 00 [................]
  | | | |         09cc: 00 00 00 00                                     [....]
  | | | | + [BinaryData directory, 68 bytes]
  | | | | | AutoISO = 0
  | | | | | - Tag 0x0001 (2 bytes, int16s[1]):
  | | | | |     098e: 00 00                                           [..]
  | | | | | BaseISO = 396
  | | | | | - Tag 0x0002 (2 bytes, int16s[1]):
  | | | | |     0990: 8c 01                                           [..]
  | | | | | MeasuredEV = -36
  | | | | | - Tag 0x0003 (2 bytes, int16s[1]):
  | | | | |     0992: dc ff                                           [..]
  | | | | | TargetAperture = 160
  | | | | | - Tag 0x0004 (2 bytes, int16s[1]):
  | | | | |     0994: a0 00                                           [..]
  | | | | | TargetExposureTime = 192
  | | | | | - Tag 0x0005 (2 bytes, int16s[1]):
  | | | | |     0996: c0 00                                           [..]
  | | | | | ExposureCompensation = 0
  | | | | | - Tag 0x0006 (2 bytes, int16s[1]):
  | | | | |     0998: 00 00                                           [..]
  | | | | | WhiteBalance = 0
  | | | | | - Tag 0x0007 (2 bytes, int16s[1]):
  | | | | |     099a: 00 00                                           [..]
  | | | | | SlowShutter = 3
  | | | | | - Tag 0x0008 (2 bytes, int16s[1]):
  | | | | |     099c: 03 00                                           [..]
  | | | | | SequenceNumber = 0
  | | | | | - Tag 0x0009 (2 bytes, int16s[1]):
  | | | | |     099e: 00 00                                           [..]
  | | | | | OpticalZoomCode = 8
  | | | | | - Tag 0x000a (2 bytes, int16s[1]):
  | | | | |     09a0: 08 00                                           [..]
  | | | | | CameraTemperature = 168
  | | | | | - Tag 0x000c (2 bytes, int16s[1]):
  | | | | |     09a4: a8 00                                           [..]
  | | | | | FlashGuideNumber = 0
  | | | | | - Tag 0x000d (2 bytes, int16s[1]):
  | | | | |     09a6: 00 00                                           [..]
  | | | | | AFPointsInFocus = 0
  | | | | | - Tag 0x000e (2 bytes, int16s[1]):
  | | | | |     09a8: 00 00                                           [..]
  | | | | | FlashExposureComp = 0
  | | | | | - Tag 0x000f (2 bytes, int16s[1]):
  | | | | |     09aa: 00 00                                           [..]
  | | | | | AutoExposureBracketing = 0
  | | | | | - Tag 0x0010 (2 bytes, int16s[1]):
  | | | | |     09ac: 00 00                                           [..]
  | | | | | AEBBracketValue = 0
  | | | | | - Tag 0x0011 (2 bytes, int16s[1]):
  | | | | |     09ae: 00 00                                           [..]
  | | | | | ControlMode = 1
  | | | | | - Tag 0x0012 (2 bytes, int16s[1]):
  | | | | |     09b0: 01 00                                           [..]
  | | | | | FocusDistanceUpper = 0
  | | | | | - Tag 0x0013 (2 bytes, int16u[1]):
  | | | | |     09b2: 00 00                                           [..]
  | | | | | FNumber = 164
  | | | | | - Tag 0x0015 (2 bytes, int16s[1]):
  | | | | |     09b6: a4 00                                           [..]
  | | | | | ExposureTime = 196
  | | | | | - Tag 0x0016 (2 bytes, int16s[1]):
  | | | | |     09b8: c4 00                                           [..]
  | | | | | MeasuredEV2 = 89
  | | | | | - Tag 0x0017 (2 bytes, int16s[1]):
  | | | | |     09ba: 59 00                                           [Y.]
  | | | | | BulbDuration = 0
  | | | | | - Tag 0x0018 (2 bytes, int16s[1]):
  | | | | |     09bc: 00 00                                           [..]
  | | | | | CameraType = 248
  | | | | | - Tag 0x001a (2 bytes, int16s[1]):
  | | | | |     09c0: f8 00                                           [..]
  | | | | | AutoRotate = 0
  | | | | | - Tag 0x001b (2 bytes, int16s[1]):
  | | | | |     09c2: 00 00                                           [..]
  | | | | | NDFilter = -1
  | | | | | - Tag 0x001c (2 bytes, int16s[1]):
  | | | | |     09c4: ff ff                                           [..]
  | | | | | SelfTimer2 = -1
  | | | | | - Tag 0x001d (2 bytes, int16s[1]):
  | | | | |     09c6: ff ff                                           [..]
  | | | | | FlashOutput = 0
  | | | | | - Tag 0x0021 (2 bytes, int16s[1]):
  | | | | |     09ce: 00 00                                           [..]
  | | | | 4)  CanonImageType = Canon EOS M50
  | | | |     - Tag 0x0006 (14 bytes, string[14]):
  | | | |         09d0: 43 61 6e 6f 6e 20 45 4f 53 20 4d 35 30 00       [Canon EOS M50.]
  | | | | 5)  CanonFirmwareVersion = Firmware Version 1.0.0
  | | | |     - Tag 0x0007 (24 bytes, string[24]):
  | | | |         09f0: 46 69 72 6d 77 61 72 65 20 56 65 72 73 69 6f 6e [Firmware Version]
  | | | |         0a00: 20 31 2e 30 2e 30 00 00                         [ 1.0.0..]
  | | | | 6)  OwnerName = 
  | | | |     - Tag 0x0009 (32 bytes, string[32]):
  | | | |         0a08: 00 00 00 00 00 00 00 00 00 00 00 00 00 00 00 00 [................]
  | | | |         0a18: 00 00 00 00 00 00 00 00 00 00 00 00 00 00 00 00 [................]
  | | | | 7)  CanonModelID = 1042
  | | | |     - Tag 0x0010 (4 bytes, int32u[1]):
  | | | |         073e: 12 04 00 00                                     [....]
  | | | | 8)  ThumbnailImageValidArea = 0 159 6 113
  | | | |     - Tag 0x0013 (8 bytes, int16u[4]):
  | | | |         0a28: 00 00 9f 00 06 00 71 00                         [......q.]
  | | | | 9)  Canon_0x0019 = 1
  | | | |     - Tag 0x0019 (2 bytes, int16u[1]):
  | | | |         0756: 01 00                                           [..]
  | | | | 10) CanonAFInfo2 (SubDirectory) -->
  | | | |     - Tag 0x0026 (1216 bytes, int16u[608] read as undef[1216]):
  | | | |         0a30: c0 04 06 00 8f 00 01 00 70 17 a0 0f 70 17 a0 0f [........p...p...]
  | | | |         0a40: 5a 01 00 00 00 00 00 00 00 00 00 00 00 00 00 00 [Z...............]
  | | | |         0a50: 00 00 00 00 00 00 00 00 00 00 00 00 00 00 00 00 [................]
  | | | |         0a60: 00 00 00 00 00 00 00 00 00 00 00 00 00 00 00 00 [................]
  | | | |         0a70: 00 00 00 00 00 00 00 00 00 00 00 00 00 00 00 00 [................]
  | | | |         [snip 1136 bytes]
  | | | | + [SerialData directory, 1216 bytes]
  | | | | | 0)  AFInfoSize = 1216
  | | | | |     - Tag 0x0000 (2 bytes, int16u[1]):
  | | | | |         0a30: c0 04                                           [..]
  | | | | | 1)  AFAreaMode = 6
  | | | | |     - Tag 0x0001 (2 bytes, int16u[1]):
  | | | | |         0a32: 06 00                                           [..]
  | | | | | 2)  NumAFPoints = 143
  | | | | |     - Tag 0x0002 (2 bytes, int16u[1]):
  | | | | |         0a34: 8f 00                                           [..]
  | | | | | 3)  ValidAFPoints = 1
  | | | | |     - Tag 0x0003 (2 bytes, int16u[1]):
  | | | | |         0a36: 01 00                                           [..]
  | | | | | 4)  CanonImageWidth = 6000
  | | | | |     - Tag 0x0004 (2 bytes, int16u[1]):
  | | | | |         0a38: 70 17                                           [p.]
  | | | | | 5)  CanonImageHeight = 4000
  | | | | |     - Tag 0x0005 (2 bytes, int16u[1]):
  | | | | |         0a3a: a0 0f                                           [..]
  | | | | | 6)  AFImageWidth = 6000
  | | | | |     - Tag 0x0006 (2 bytes, int16u[1]):
  | | | | |         0a3c: 70 17                                           [p.]
  | | | | | 7)  AFImageHeight = 4000
  | | | | |     - Tag 0x0007 (2 bytes, int16u[1]):
  | | | | |         0a3e: a0 0f                                           [..]
  | | | | | 8)  AFAreaWidths = 346 0 0 0 0 0 0 0 0 0 0 0 0 0 0 0 0 0 0 0 0 0 0 0 0 0 0 [snip]
  | | | | |     - Tag 0x0008 (286 bytes, int16s[143]):
  | | | | |         0a40: 5a 01 00 00 00 00 00 00 00 00 00 00 00 00 00 00 [Z...............]
  | | | | |         0a50: 00 00 00 00 00 00 00 00 00 00 00 00 00 00 00 00 [................]
  | | | | |         0a60: 00 00 00 00 00 00 00 00 00 00 00 00 00 00 00 00 [................]
  | | | | |         0a70: 00 00 00 00 00 00 00 00 00 00 00 00 00 00 00 00 [................]
  | | | | |         0a80: 00 00 00 00 00 00 00 00 00 00 00 00 00 00 00 00 [................]
  | | | | |         [snip 206 bytes]
  | | | | | 9)  AFAreaHeights = 346 0 0 0 0 0 0 0 0 0 0 0 0 0 0 0 0 0 0 0 0 0 0 0 0 0 0[snip]
  | | | | |     - Tag 0x0009 (286 bytes, int16s[143]):
  | | | | |         0b5e: 5a 01 00 00 00 00 00 00 00 00 00 00 00 00 00 00 [Z...............]
  | | | | |         0b6e: 00 00 00 00 00 00 00 00 00 00 00 00 00 00 00 00 [................]
  | | | | |         0b7e: 00 00 00 00 00 00 00 00 00 00 00 00 00 00 00 00 [................]
  | | | | |         0b8e: 00 00 00 00 00 00 00 00 00 00 00 00 00 00 00 00 [................]
  | | | | |         0b9e: 00 00 00 00 00 00 00 00 00 00 00 00 00 00 00 00 [................]
  | | | | |         [snip 206 bytes]
  | | | | | 10) AFAreaXPositions = 703 0 0 0 0 0 0 0 0 0 0 0 0 0 0 0 0 0 0 0 0 0 0 0 0 [snip]
  | | | | |     - Tag 0x000a (286 bytes, int16s[143]):
  | | | | |         0c7c: bf 02 00 00 00 00 00 00 00 00 00 00 00 00 00 00 [................]
  | | | | |         0c8c: 00 00 00 00 00 00 00 00 00 00 00 00 00 00 00 00 [................]
  | | | | |         0c9c: 00 00 00 00 00 00 00 00 00 00 00 00 00 00 00 00 [................]
  | | | | |         0cac: 00 00 00 00 00 00 00 00 00 00 00 00 00 00 00 00 [................]
  | | | | |         0cbc: 00 00 00 00 00 00 00 00 00 00 00 00 00 00 00 00 [................]
  | | | | |         [snip 206 bytes]
  | | | | | 11) AFAreaYPositions = 703 0 0 0 0 0 0 0 0 0 0 0 0 0 0 0 0 0 0 0 0 0 0 0 0 [snip]
  | | | | |     - Tag 0x000b (286 bytes, int16s[143]):
  | | | | |         0d9a: bf 02 00 00 00 00 00 00 00 00 00 00 00 00 00 00 [................]
  | | | | |         0daa: 00 00 00 00 00 00 00 00 00 00 00 00 00 00 00 00 [................]
  | | | | |         0dba: 00 00 00 00 00 00 00 00 00 00 00 00 00 00 00 00 [................]
  | | | | |         0dca: 00 00 00 00 00 00 00 00 00 00 00 00 00 00 00 00 [................]
  | | | | |         0dda: 00 00 00 00 00 00 00 00 00 00 00 00 00 00 00 00 [................]
  | | | | |         [snip 206 bytes]
  | | | | | 12) AFPointsInFocus = 1 0 0 0 0 0 0 0 0
  | | | | |     - Tag 0x000c (18 bytes, int16s[9]):
  | | | | |         0eb8: 01 00 00 00 00 00 00 00 00 00 00 00 00 00 00 00 [................]
  | | | | |         0ec8: 00 00                                           [..]
  | | | | | 13) AFPointsSelected = 1 0 0 0 0 0 0 0 0
  | | | | |     - Tag 0x000d (18 bytes, int16s[9]):
  | | | | |         0eca: 01 00 00 00 00 00 00 00 00 00 00 00 00 00 00 00 [................]
  | | | | |         0eda: 00 00                                           [..]
  | | | | 11) ImageUniqueID = ....k........Q.)
  | | | |     - Tag 0x0028 (16 bytes, int8u[16] read as undef[16]):
  | | | |         0ef0: 0d 7f d5 99 6b f5 d5 e1 b6 0c a2 b2 f0 51 a0 29 [....k........Q.)]
  | | | | 12) Canon_0x0033 = 1574403960 3788849265 2996964534 698372592
  | | | |     - Tag 0x0033 (16 bytes, int32u[4]):
  | | | |         0f00: 78 7f d7 5d 71 40 d5 e1 b6 0c a2 b2 f0 51 a0 29 [x..]q@.......Q.)]
  | | | | 13) TimeInfo (SubDirectory) -->
  | | | |     - Tag 0x0035 (16 bytes, int32u[4] read as undef[16]):
  | | | |         0f10: 10 00 00 00 00 00 00 00 14 00 00 00 00 00 00 00 [................]
  | | | | + [BinaryData directory, 16 bytes]
  | | | | | TimeZone = 0
  | | | | | - Tag 0x0001 (4 bytes, int32s[1]):
  | | | | |     0f14: 00 00 00 00                                     [....]
  | | | | | TimeZoneCity = 20
  | | | | | - Tag 0x0002 (4 bytes, int32s[1]):
  | | | | |     0f18: 14 00 00 00                                     [....]
  | | | | | DaylightSavings = 0
  | | | | | - Tag 0x0003 (4 bytes, int32s[1]):
  | | | | |     0f1c: 00 00 00 00                                     [....]
  | | | | 14) BatteryType = LLP-E12.
  | | | |     - Tag 0x0038 (76 bytes, undef[76]):
  | | | |         0f20: 4c 00 00 00 4c 50 2d 45 31 32 00 00 00 00 00 00 [L...LP-E12......]
  | | | |         0f30: 00 00 00 00 00 00 00 00 00 00 00 00 00 00 00 00 [................]
  | | | |         0f40: 00 00 00 00 00 00 00 00 00 00 00 00 01 00 00 00 [................]
  | | | |         0f50: 00 00 00 00 00 00 00 00 00 00 00 00 00 00 00 00 [................]
  | | | |         0f60: 00 00 00 00 00 00 00 00 00 00 00 00             [............]
  | | | | 15) Canon_0x003d = 48 1 3 0 0 0 0 0 0 0 0 1
  | | | |     - Tag 0x003d (48 bytes, int32u[12]):
  | | | |         0f6c: 30 00 00 00 01 00 00 00 03 00 00 00 00 00 00 00 [0...............]
  | | | |         0f7c: 00 00 00 00 00 00 00 00 00 00 00 00 00 00 00 00 [................]
  | | | |         0f8c: 00 00 00 00 00 00 00 00 00 00 00 00 01 00 00 00 [................]
  | | | | 16) Canon_0x003f = 17
  | | | |     - Tag 0x003f (4 bytes, int32u[1]):
  | | | |         07aa: 11 00 00 00                                     [....]
  | | | | 17) CanonFileInfo (SubDirectory) -->
  | | | |     - Tag 0x0093 (132 bytes, int16u[66] read as undef[132]):
  | | | |         0f9c: 84 00 00 00 00 00 00 00 00 00 00 00 00 00 00 00 [................]
  | | | |         0fac: ff ff 00 00 00 00 00 00 00 00 00 00 ff ff ff ff [................]
  | | | |         0fbc: 5e 00 ff ff 01 00 01 00 96 00 88 00 00 00 01 00 [^...............]
  | | | |         0fcc: 00 00 00 00 ff ff 00 00 09 00 3f 00 0a 00 1f 00 [..........?.....]
  | | | |         0fdc: 00 00 a4 00 00 00 00 00 00 00 00 00 00 00 00 00 [................]
  | | | |         [snip 52 bytes]
  | | | | + [BinaryData directory, 132 bytes]
  | | | | | BracketMode = 0
  | | | | | - Tag 0x0003 (2 bytes, int16s[1]):
  | | | | |     0fa2: 00 00                                           [..]
  | | | | | BracketValue = 0
  | | | | | - Tag 0x0004 (2 bytes, int16s[1]):
  | | | | |     0fa4: 00 00                                           [..]
  | | | | | BracketShotNumber = 0
  | | | | | - Tag 0x0005 (2 bytes, int16s[1]):
  | | | | |     0fa6: 00 00                                           [..]
  | | | | | RawJpgQuality = 0
  | | | | | - Tag 0x0006 (2 bytes, int16s[1]):
  | | | | |     0fa8: 00 00                                           [..]
  | | | | | RawJpgSize = 0
  | | | | | - Tag 0x0007 (2 bytes, int16s[1]):
  | | | | |     0faa: 00 00                                           [..]
  | | | | | LongExposureNoiseReduction2 = -1
  | | | | | - Tag 0x0008 (2 bytes, int16s[1]):
  | | | | |     0fac: ff ff                                           [..]
  | | | | | WBBracketMode = 0
  | | | | | - Tag 0x0009 (2 bytes, int16s[1]):
  | | | | |     0fae: 00 00                                           [..]
  | | | | | WBBracketValueAB = 0
  | | | | | - Tag 0x000c (2 bytes, int16s[1]):
  | | | | |     0fb4: 00 00                                           [..]
  | | | | | WBBracketValueGM = 0
  | | | | | - Tag 0x000d (2 bytes, int16s[1]):
  | | | | |     0fb6: 00 00                                           [..]
  | | | | | FilterEffect = -1
  | | | | | - Tag 0x000e (2 bytes, int16s[1]):
  | | | | |     0fb8: ff ff                                           [..]
  | | | | | ToningEffect = -1
  | | | | | - Tag 0x000f (2 bytes, int16s[1]):
  | | | | |     0fba: ff ff                                           [..]
  | | | | | LiveViewShooting = 1
  | | | | | - Tag 0x0013 (2 bytes, int16s[1]):
  | | | | |     0fc2: 01 00                                           [..]
  | | | | | FocusDistanceUpper = 150
  | | | | | - Tag 0x0014 (2 bytes, int16u[1]):
  | | | | |     0fc4: 96 00                                           [..]
  | | | | | FocusDistanceLower = 136
  | | | | | - Tag 0x0015 (2 bytes, int16u[1]):
  | | | | |     0fc6: 88 00                                           [..]
  | | | | | FlashExposureLock = 0
  | | | | | - Tag 0x0019 (2 bytes, int16s[1]):
  | | | | |     0fce: 00 00                                           [..]
  | | | | 18) LensModel = EF-M15-45mm f/3.5-6.3 IS STM
  | | | |     - Tag 0x0095 (74 bytes, string[74]):
  | | | |         1020: 45 46 2d 4d 31 35 2d 34 35 6d 6d 20 66 2f 33 2e [EF-M15-45mm f/3.]
  | | | |         1030: 35 2d 36 2e 33 20 49 53 20 53 54 4d 00 00 00 00 [5-6.3 IS STM....]
  | | | |         1040: 00 00 00 00 00 00 00 00 00 00 00 00 00 00 00 00 [................]
  | | | |         1050: 00 00 00 00 00 00 00 00 00 00 00 00 00 00 00 00 [................]
  | | | |         1060: 00 00 00 00 00 00 00 00 00 00                   [..........]
  | | | | 19) InternalSerialNumber = CG0156580
  | | | |     - Tag 0x0096 (16 bytes, string[16]):
  | | | |         106a: 43 47 30 31 35 36 35 38 30 00 00 00 00 00 00 00 [CG0156580.......]
  | | | | 20) DustRemovalData = 
  | | | |     - Tag 0x0097 (1024 bytes, undef[1024]):
  | | | |         107a: 00 00 00 00 00 00 00 00 00 00 00 00 00 00 00 00 [................]
  | | | |         108a: 00 00 00 00 00 00 00 00 00 00 00 00 00 00 00 00 [................]
  | | | |         109a: 00 00 00 00 00 00 00 00 00 00 00 00 00 00 00 00 [................]
  | | | |         10aa: 00 00 00 00 00 00 00 00 00 00 00 00 00 00 00 00 [................]
  | | | |         10ba: 00 00 00 00 00 00 00 00 00 00 00 00 00 00 00 00 [................]
  | | | |         [snip 944 bytes]
  | | | | 21) CropInfo (SubDirectory) -->
  | | | |     - Tag 0x0098 (8 bytes, int16u[4] read as undef[8]):
  | | | |         147a: 00 00 00 00 00 00 00 00                         [........]
  | | | | + [BinaryData directory, 8 bytes]
  | | | | | CropLeftMargin = 0
  | | | | | - Tag 0x0000 (2 bytes, int16u[1]):
  | | | | |     147a: 00 00                                           [..]
  | | | | | CropRightMargin = 0
  | | | | | - Tag 0x0001 (2 bytes, int16u[1]):
  | | | | |     147c: 00 00                                           [..]
  | | | | | CropTopMargin = 0
  | | | | | - Tag 0x0002 (2 bytes, int16u[1]):
  | | | | |     147e: 00 00                                           [..]
  | | | | | CropBottomMargin = 0
  | | | | | - Tag 0x0003 (2 bytes, int16u[1]):
  | | | | |     1480: 00 00                                           [..]
  | | | | 22) CustomFunctions2 (SubDirectory) -->
  | | | |     - Tag 0x0099 (140 bytes, int32u[35] read as undef[140]):
  | | | |         1482: 8c 00 00 00 02 00 00 00 01 00 00 00 20 00 00 00 [............ ...]
  | | | |         1492: 02 00 00 00 03 01 00 00 01 00 00 00 00 00 00 00 [................]
  | | | |         14a2: 08 01 00 00 01 00 00 00 00 00 00 00 04 00 00 00 [................]
  | | | |         14b2: 5c 00 00 00 03 00 00 00 11 07 00 00 01 00 00 00 [\...............]
  | | | |         14c2: 00 00 00 00 14 08 00 00 01 00 00 00 00 00 00 00 [................]
  | | | |         [snip 60 bytes]
  | | | | + [CanonCustom2 directory with 2 entries, 140 bytes]
  | | | | + [CanonCustom2 group 1 directory with 2 entries, 32 bytes]
  | | | | | 0)  ISOExpansion = 0
  | | | | |     - Tag 0x0103 (4 bytes, int32u[1])
  | | | | | 1)  SafetyShift = 0
  | | | | |     - Tag 0x0108 (4 bytes, int32u[1])
  | | | | + [CanonCustom2 group 4 directory with 3 entries, 92 bytes]
  | | | | | 0)  ShutterReleaseWithoutLens = 0
  | | | | |     - Tag 0x0711 (4 bytes, int32u[1])
  | | | | | 1)  RetractLensOnPowerOff = 0
  | | | | |     - Tag 0x0814 (4 bytes, int32u[1])
  | | | | | 2)  CustomControls = 0 19 3 10 23 73 71 61 29 0 7 3 4
  | | | | |     - Tag 0x070c (52 bytes, int32u[13])
  | | | | 23) AspectInfo (SubDirectory) -->
  | | | |     - Tag 0x009a (20 bytes, int32u[5] read as undef[20]):
  | | | |         150e: 00 00 00 00 70 17 00 00 a0 0f 00 00 00 00 00 00 [....p...........]
  | | | |         151e: 00 00 00 00                                     [....]
  | | | | + [BinaryData directory, 20 bytes]
  | | | | | AspectRatio = 0
  | | | | | - Tag 0x0000 (4 bytes, int32u[1]):
  | | | | |     150e: 00 00 00 00                                     [....]
  | | | | | CroppedImageWidth = 6000
  | | | | | - Tag 0x0001 (4 bytes, int32u[1]):
  | | | | |     1512: 70 17 00 00                                     [p...]
  | | | | | CroppedImageHeight = 4000
  | | | | | - Tag 0x0002 (4 bytes, int32u[1]):
  | | | | |     1516: a0 0f 00 00                                     [....]
  | | | | | CroppedImageLeft = 0
  | | | | | - Tag 0x0003 (4 bytes, int32u[1]):
  | | | | |     151a: 00 00 00 00                                     [....]
  | | | | | CroppedImageTop = 0
  | | | | | - Tag 0x0004 (4 bytes, int32u[1]):
  | | | | |     151e: 00 00 00 00                                     [....]
  | | | | 24) ProcessingInfo (SubDirectory) -->
  | | | |     - Tag 0x00a0 (36 bytes, int16u[18] read as undef[36]):
  | | | |         1522: 24 00 00 00 04 00 00 00 00 00 00 00 00 00 00 00 [$...............]
  | | | |         1532: ff ff 50 14 87 00 00 00 00 00 00 00 02 00 04 00 [..P.............]
  | | | |         1542: 00 00 ff ff                                     [....]
  | | | | + [BinaryData directory, 36 bytes]
  | | | | | ToneCurve = 0
  | | | | | - Tag 0x0001 (2 bytes, int16s[1]):
  | | | | |     1524: 00 00                                           [..]
  | | | | | Sharpness = 4
  | | | | | - Tag 0x0002 (2 bytes, int16s[1]):
  | | | | |     1526: 04 00                                           [..]
  | | | | | SharpnessFrequency = 0
  | | | | | - Tag 0x0003 (2 bytes, int16s[1]):
  | | | | |     1528: 00 00                                           [..]
  | | | | | SensorRedLevel = 0
  | | | | | - Tag 0x0004 (2 bytes, int16s[1]):
  | | | | |     152a: 00 00                                           [..]
  | | | | | SensorBlueLevel = 0
  | | | | | - Tag 0x0005 (2 bytes, int16s[1]):
  | | | | |     152c: 00 00                                           [..]
  | | | | | WhiteBalanceRed = 0
  | | | | | - Tag 0x0006 (2 bytes, int16s[1]):
  | | | | |     152e: 00 00                                           [..]
  | | | | | WhiteBalanceBlue = 0
  | | | | | - Tag 0x0007 (2 bytes, int16s[1]):
  | | | | |     1530: 00 00                                           [..]
  | | | | | WhiteBalance = -1
  | | | | | - Tag 0x0008 (2 bytes, int16s[1]):
  | | | | |     1532: ff ff                                           [..]
  | | | | | ColorTemperature = 5200
  | | | | | - Tag 0x0009 (2 bytes, int16s[1]):
  | | | | |     1534: 50 14                                           [P.]
  | | | | | PictureStyle = 135
  | | | | | - Tag 0x000a (2 bytes, int16s[1]):
  | | | | |     1536: 87 00                                           [..]
  | | | | | DigitalGain = 0
  | | | | | - Tag 0x000b (2 bytes, int16s[1]):
  | | | | |     1538: 00 00                                           [..]
  | | | | | WBShiftAB = 0
  | | | | | - Tag 0x000c (2 bytes, int16s[1]):
  | | | | |     153a: 00 00                                           [..]
  | | | | | WBShiftGM = 0
  | | | | | - Tag 0x000d (2 bytes, int16s[1]):
  | | | | |     153c: 00 00                                           [..]
  | | | | 25) MeasuredColor (SubDirectory) -->
  | | | |     - Tag 0x00aa (12 bytes, int16u[6] read as undef[12]):
  | | | |         1546: 0c 00 7c 04 00 04 00 04 fa 01 01 00             [..|.........]
  | | | | + [BinaryData directory, 12 bytes]
  | | | | | MeasuredRGGB = 1148 1024 1024 506
  | | | | | - Tag 0x0001 (8 bytes, int16u[4]):
  | | | | |     1548: 7c 04 00 04 00 04 fa 01                         [|.......]
  | | | | 26) ColorSpace = 1
  | | | |     - Tag 0x00b4 (2 bytes, int16u[1]):
  | | | |         0822: 01 00                                           [..]
  | | | | 27) VRDOffset = 0
  | | | |     - Tag 0x00d0 (4 bytes, int32u[1]):
  | | | |         082e: 00 00 00 00                                     [....]
  | | | | 28) SensorInfo (SubDirectory) -->
  | | | |     - Tag 0x00e0 (34 bytes, int16u[17] read as undef[34]):
  | | | |         1552: 22 00 90 18 d8 0f 01 00 01 00 14 01 30 00 83 18 ["...........0...]
  | | | |         1562: cf 0f 00 00 00 00 00 00 00 00 00 00 00 00 00 00 [................]
  | | | |         1572: 00 00                                           [..]
  | | | | + [BinaryData directory, 34 bytes]
  | | | | | SensorWidth = 6288
  | | | | | - Tag 0x0001 (2 bytes, int16s[1]):
  | | | | |     1554: 90 18                                           [..]
  | | | | | SensorHeight = 4056
  | | | | | - Tag 0x0002 (2 bytes, int16s[1]):
  | | | | |     1556: d8 0f                                           [..]
  | | | | | SensorLeftBorder = 276
  | | | | | - Tag 0x0005 (2 bytes, int16s[1]):
  | | | | |     155c: 14 01                                           [..]
  | | | | | SensorTopBorder = 48
  | | | | | - Tag 0x0006 (2 bytes, int16s[1]):
  | | | | |     155e: 30 00                                           [0.]
  | | | | | SensorRightBorder = 6275
  | | | | | - Tag 0x0007 (2 bytes, int16s[1]):
  | | | | |     1560: 83 18                                           [..]
  | | | | | SensorBottomBorder = 4047
  | | | | | - Tag 0x0008 (2 bytes, int16s[1]):
  | | | | |     1562: cf 0f                                           [..]
  | | | | | BlackMaskLeftBorder = 0
  | | | | | - Tag 0x0009 (2 bytes, int16s[1]):
  | | | | |     1564: 00 00                                           [..]
  | | | | | BlackMaskTopBorder = 0
  | | | | | - Tag 0x000a (2 bytes, int16s[1]):
  | | | | |     1566: 00 00                                           [..]
  | | | | | BlackMaskRightBorder = 0
  | | | | | - Tag 0x000b (2 bytes, int16s[1]):
  | | | | |     1568: 00 00                                           [..]
  | | | | | BlackMaskBottomBorder = 0
  | | | | | - Tag 0x000c (2 bytes, int16s[1]):
  | | | | |     156a: 00 00                                           [..]
  | | | | 29) PictureStyleUserDef = 135 135 135
  | | | |     - Tag 0x4008 (6 bytes, int16u[3]):
  | | | |         1574: 87 00 87 00 87 00                               [......]
  | | | | 30) PictureStylePC = 0 0 0
  | | | |     - Tag 0x4009 (6 bytes, int16u[3]):
  | | | |         157a: 00 00 00 00 00 00                               [......]
  | | | | 31) CustomPictureStyleFileName = 
  | | | |     - Tag 0x4010 (32 bytes, string[32]):
  | | | |         1580: 00 00 00 00 00 00 00 00 00 00 00 00 00 00 00 00 [................]
  | | | |         1590: 00 00 00 00 00 00 00 00 00 00 00 00 00 00 00 00 [................]
  | | | | 32) Canon_0x4011 = 
  | | | |     - Tag 0x4011 (252 bytes, undef[252]):
  | | | |         15a0: 00 00 00 00 00 00 00 00 00 00 00 00 00 00 00 00 [................]
  | | | |         15b0: 00 00 00 00 00 00 00 00 00 00 00 00 00 00 00 00 [................]
  | | | |         15c0: 00 00 00 00 00 00 00 00 00 00 00 00 00 00 00 00 [................]
  | | | |         15d0: 00 00 00 00 00 00 00 00 00 00 00 00 00 00 00 00 [................]
  | | | |         15e0: 00 00 00 00 00 00 00 00 00 00 00 00 00 00 00 00 [................]
  | | | |         [snip 172 bytes]
  | | | | 33) Canon_0x4012 = 
  | | | |     - Tag 0x4012 (32 bytes, string[32]):
  | | | |         169c: 00 00 00 00 00 00 00 00 00 00 00 00 00 00 00 00 [................]
  | | | |         16ac: 00 00 00 00 00 00 00 00 00 00 00 00 00 00 00 00 [................]
  | | | | 34) AFMicroAdj (SubDirectory) -->
  | | | |     - Tag 0x4013 (44 bytes, int32u[11] read as undef[44]):
  | | | |         16bc: 2c 00 00 00 00 00 00 00 00 00 00 00 0a 00 00 00 [,...............]
  | | | |         16cc: ff ff ff ff 00 00 00 00 0a 00 00 00 00 00 00 00 [................]
  | | | |         16dc: 0a 00 00 00 00 00 00 00 0a 00 00 00             [............]
  | | | | + [BinaryData directory, 44 bytes]
  | | | | | AFMicroAdjMode = 0
  | | | | | - Tag 0x0001 (4 bytes, int32s[1]):
  | | | | |     16c0: 00 00 00 00                                     [....]
  | | | | | AFMicroAdjValue = 0
  | | | | | - Tag 0x0002 (8 bytes, rational64s[1]):
  | | | | |     16c4: 00 00 00 00 0a 00 00 00                         [........]
  | | | | 35) VignettingCorr2 (SubDirectory) -->
  | | | |     - Tag 0x4016 (40 bytes, int32u[10] read as undef[40]):
  | | | |         16e8: 28 00 00 00 00 00 00 00 01 00 00 00 00 00 00 00 [(...............]
  | | | |         16f8: 01 00 00 00 01 00 00 00 01 00 00 00 00 00 00 00 [................]
  | | | |         1708: 01 00 00 00 00 00 00 00                         [........]
  | | | | + [BinaryData directory, 40 bytes]
  | | | | | PeripheralLightingSetting = 1
  | | | | | - Tag 0x0005 (4 bytes, int32s[1]):
  | | | | |     16fc: 01 00 00 00                                     [....]
  | | | | | ChromaticAberrationSetting = 1
  | | | | | - Tag 0x0006 (4 bytes, int32s[1]):
  | | | | |     1700: 01 00 00 00                                     [....]
  | | | | 36) LightingOpt (SubDirectory) -->
  | | | |     - Tag 0x4018 (52 bytes, int32u[13] read as undef[52]):
  | | | |         1710: 34 00 00 00 00 00 00 00 00 00 00 00 00 00 00 00 [4...............]
  | | | |         1720: 00 00 00 00 00 00 00 00 01 00 00 00 00 00 00 00 [................]
  | | | |         1730: 01 00 00 00 01 00 00 00 00 00 00 00 00 00 00 00 [................]
  | | | |         1740: 01 00 00 00                                     [....]
  | | | | + [BinaryData directory, 52 bytes]
  | | | | | PeripheralIlluminationCorr = 0
  | | | | | - Tag 0x0001 (4 bytes, int32s[1]):
  | | | | |     1714: 00 00 00 00                                     [....]
  | | | | | AutoLightingOptimizer = 0
  | | | | | - Tag 0x0002 (4 bytes, int32s[1]):
  | | | | |     1718: 00 00 00 00                                     [....]
  | | | | | HighlightTonePriority = 0
  | | | | | - Tag 0x0003 (4 bytes, int32s[1]):
  | | | | |     171c: 00 00 00 00                                     [....]
  | | | | | LongExposureNoiseReduction = 0
  | | | | | - Tag 0x0004 (4 bytes, int32s[1]):
  | | | | |     1720: 00 00 00 00                                     [....]
  | | | | | HighISONoiseReduction = 0
  | | | | | - Tag 0x0005 (4 bytes, int32s[1]):
  | | | | |     1724: 00 00 00 00                                     [....]
  | | | | 37) LensInfo (SubDirectory) -->
  | | | |     - Tag 0x4019 (30 bytes, undef[30]):
  | | | |         1744: 00 00 00 00 00 00 00 00 00 00 00 00 00 00 00 00 [................]
  | | | |         1754: 00 00 00 00 00 00 00 00 00 00 00 00 00 00       [..............]
  | | | | + [BinaryData directory, 30 bytes]
  | | | | | LensSerialNumber = 
  | | | | | - Tag 0x0000 (5 bytes, undef[5]):
  | | | | |     1744: 00 00 00 00 00                                  [.....]
  | | | | 38) AmbienceInfo (SubDirectory) -->
  | | | |     - Tag 0x4020 (32 bytes, int32u[8] read as undef[32]):
  | | | |         1762: 20 00 00 00 00 00 00 00 00 00 00 00 00 00 00 00 [ ...............]
  | | | |         1772: ff ff ff 7f 00 00 00 00 01 00 00 00 01 00 00 00 [................]
  | | | | + [BinaryData directory, 32 bytes]
  | | | | | AmbienceSelection = 0
  | | | | | - Tag 0x0001 (4 bytes, int32s[1]):
  | | | | |     1766: 00 00 00 00                                     [....]
  | | | | 39) FilterInfo (SubDirectory) -->
  | | | |     - Tag 0x4024 (212 bytes, int32u[53] read as undef[212]):
  | | | |         1782: d4 00 00 00 07 00 00 00 01 00 00 00 14 00 00 00 [................]
  | | | |         1792: 01 00 00 00 01 01 00 00 01 00 00 00 ff ff ff ff [................]
  | | | |         17a2: 02 00 00 00 14 00 00 00 01 00 00 00 01 02 00 00 [................]
  | | | |         17b2: 01 00 00 00 ff ff ff ff 03 00 00 00 14 00 00 00 [................]
  | | | |         17c2: 01 00 00 00 01 03 00 00 01 00 00 00 ff ff ff ff [................]
  | | | |         [snip 132 bytes]
  | | | | + [Creative Filter directory with 7 entries]
  | | | | + [Filter 1 directory with 1 entries, 20 bytes]
  | | | | | GrainyBWFilter = -1
  | | | | | - Tag 0x0101 (4 bytes):
  | | | | |     10c6: ff ff ff ff                                     [....]
  | | | | + [Filter 2 directory with 1 entries, 20 bytes]
  | | | | | SoftFocusFilter = -1
  | | | | | - Tag 0x0201 (4 bytes):
  | | | | |     10de: ff ff ff ff                                     [....]
  | | | | + [Filter 3 directory with 1 entries, 20 bytes]
  | | | | | ToyCameraFilter = -1
  | | | | | - Tag 0x0301 (4 bytes):
  | | | | |     10f6: ff ff ff ff                                     [....]
  | | | | + [Filter 4 directory with 4 entries, 56 bytes]
  | | | | | MiniatureFilter = -1
  | | | | | - Tag 0x0401 (4 bytes):
  | | | | |     110e: ff ff ff ff                                     [....]
  | | | | | MiniatureFilterOrientation = 0
  | | | | | - Tag 0x0402 (4 bytes):
  | | | | |     111a: 00 00 00 00                                     [....]
  | | | | | MiniatureFilterPosition = 0
  | | | | | - Tag 0x0403 (4 bytes):
  | | | | |     1126: 00 00 00 00                                     [....]
  | | | | | MiniatureFilterParameter = 0
  | | | | | - Tag 0x0404 (4 bytes):
  | | | | |     1132: 00 00 00 00                                     [....]
  | | | | + [Filter 5 directory with 1 entries, 20 bytes]
  | | | | | FisheyeFilter = -1
  | | | | | - Tag 0x0501 (4 bytes):
  | | | | |     114a: ff ff ff ff                                     [....]
  | | | | + [Filter 6 directory with 1 entries, 20 bytes]
  | | | | | PaintingFilter = -1
  | | | | | - Tag 0x0601 (4 bytes):
  | | | | |     1162: ff ff ff ff                                     [....]
  | | | | + [Filter 7 directory with 1 entries, 20 bytes]
  | | | | | WatercolorFilter = -1
  | | | | | - Tag 0x0701 (4 bytes):
  | | | | |     117a: ff ff ff ff                                     [....]
  | | | | 40) HDRInfo (SubDirectory) -->
  | | | |     - Tag 0x4025 (36 bytes, int32u[9] read as undef[36]):
  | | | |         1856: 24 00 00 00 00 00 00 00 00 00 00 00 00 00 00 00 [$...............]
  | | | |         1866: 00 00 00 00 00 00 00 00 00 00 00 00 00 00 00 00 [................]
  | | | |         1876: 00 00 00 00                                     [....]
  | | | | + [BinaryData directory, 36 bytes]
  | | | | | HDR = 0
  | | | | | - Tag 0x0001 (4 bytes, int32s[1]):
  | | | | |     185a: 00 00 00 00                                     [....]
  | | | | | HDREffect = 0
  | | | | | - Tag 0x0002 (4 bytes, int32s[1]):
  | | | | |     185e: 00 00 00 00                                     [....]
  | | | | 41) Canon_0x4027 = 24 393984 872415232 0 13684944 131072
  | | | |     - Tag 0x4027 (24 bytes, int32u[6]):
  | | | |         187a: 18 00 00 00 00 03 06 00 00 00 00 34 00 00 00 00 [...........4....]
  | | | |         188a: d0 d0 d0 00 00 00 02 00                         [........]
  | | | | 42) Canon_0x402c = 8 0
  | | | |     - Tag 0x402c (8 bytes, int32u[2]):
  | | | |         1892: 08 00 00 00 00 00 00 00                         [........]
  | | | | 43) Canon_0x4035 = #.......?.........................q.....u...2.....0.....-.[snip]
  | | | |     - Tag 0x4035 (556 bytes, undef[556]):
  | | | |         189a: 23 0a 92 09 1e 09 ca 08 3f 08 a9 07 b3 06 b5 05 [#.......?.......]
  | | | |         18aa: ac 04 ab 03 c3 0f d7 0d a0 0b 9e 09 db 07 1f 06 [................]
  | | | |         18ba: b1 04 71 03 85 02 18 02 75 10 a6 0d 32 0b 12 09 [..q.....u...2...]
  | | | |         18ca: 18 07 30 05 b1 03 ba 02 2d 02 e7 01 16 0e eb 0d [..0.....-.......]
  | | | |         18da: 4d 0e 8d 0e 05 0d cc 0b 3b 0d e4 0f 7a 17 fb 1d [M.......;...z...]
  | | | |         [snip 476 bytes]
  | | | | 44) Canon_0x4037 = ............J...
  | | | |     - Tag 0x4037 (24 bytes, undef[24]):
  | | | |         1ac6: 80 02 aa 01 01 00 02 00 01 00 01 00 83 01 b5 00 [................]
  | | | |         1ad6: 81 00 4a 01 03 00 01 00                         [..J.....]
  | | | | 45) Canon_0x4039 = 13 127 213 153 107 245 213 225 182 12 162 178 240 81 160 41
  | | | |     - Tag 0x4039 (16 bytes, int8u[16]):
  | | | |         1ade: 0d 7f d5 99 6b f5 d5 e1 b6 0c a2 b2 f0 51 a0 29 [....k........Q.)]
  | | | | 46) Canon_0x403c = 12 1 25
  | | | |     - Tag 0x403c (12 bytes, int32u[3]):
  | | | |         1aee: 0c 00 00 00 01 00 00 00 19 00 00 00             [............]
  | | GPSInfo (SubDirectory) -->
  | | - Tag 'CMT4' (1808 bytes):
  | |     1b10: 49 49 2a 00 08 00 00 00 01 00 00 00 01 00 04 00 [II*.............]
  | |     1b20: 00 00 02 03 00 00 00 00 00 00 00 00 00 00 00 00 [................]
  | |     1b30: 00 00 00 00 00 00 00 00 00 00 00 00 00 00 00 00 [................]
  | |     1b40: 00 00 00 00 00 00 00 00 00 00 00 00 00 00 00 00 [................]
  | |     1b50: 00 00 00 00 00 00 00 00 00 00 00 00 00 00 00 00 [................]
  | |     [snip 1728 bytes]
  | | + [TIFF directory]
  | | | ExifByteOrder = II
  | | | + [IFD0 directory with 1 entries]
  | | | | 0)  GPSVersionID = 2 3 0 0
  | | | |     - Tag 0x0000 (4 bytes, int8u[4]):
  | | | |         1b22: 02 03 00 00                                     [....]
  | | ThumbnailImage = .xC.............................................................[snip]
  | | - Tag 'THMB' (17400 bytes):
  | |     2228: 00 00 00 00 00 a0 00 78 00 00 43 e1 00 01 00 00 [.......x..C.....]
  | |     2238: ff d8 ff db 00 84 00 01 01 01 01 01 01 01 01 01 [................]
  | |     2248: 01 01 01 01 01 01 02 01 01 01 01 01 02 02 02 02 [................]
  | |     2258: 02 03 03 03 03 03 03 03 03 03 04 04 04 03 03 04 [................]
  | |     2268: 03 03 03 04 05 04 04 05 05 05 05 05 03 04 05 06 [................]
  | |     [snip 17320 bytes]
  | MovieHeader (SubDirectory) -->
  | - Tag 'mvhd' (100 bytes):
  |     6628: 00 00 00 00 d6 b3 12 81 d6 b3 12 81 00 00 00 01 [................]
  |     6638: 00 00 00 01 00 01 00 00 01 00 00 00 00 00 00 00 [................]
  |     6648: 00 00 00 00 00 01 00 00 00 00 00 00 00 00 00 00 [................]
  |     6658: 00 00 00 00 00 01 00 00 00 00 00 00 00 00 00 00 [................]
  |     6668: 00 00 00 00 40 00 00 00 00 00 00 00 00 00 00 00 [....@...........]
  |     [snip 20 bytes]
  | + [BinaryData directory, 100 bytes]
  | | MovieHeaderVersion = 0
  | | - Tag 0x0000 (1 bytes, int8u[1]):
  | |     6628: 00                                              [.]
  | | CreateDate = 3602059905
  | | - Tag 0x0001 (4 bytes, int32u[1]):
  | |     662c: d6 b3 12 81                                     [....]
  | | ModifyDate = 3602059905
  | | - Tag 0x0002 (4 bytes, int32u[1]):
  | |     6630: d6 b3 12 81                                     [....]
  | | TimeScale = 1
  | | - Tag 0x0003 (4 bytes, int32u[1]):
  | |     6634: 00 00 00 01                                     [....]
  | | Duration = 1
  | | - Tag 0x0004 (4 bytes, int32u[1]):
  | |     6638: 00 00 00 01                                     [....]
  | | PreferredRate = 65536
  | | - Tag 0x0005 (4 bytes, int32u[1]):
  | |     663c: 00 01 00 00                                     [....]
  | | PreferredVolume = 256
  | | - Tag 0x0006 (2 bytes, int16u[1]):
  | |     6640: 01 00                                           [..]
  | | MatrixStructure = 1 0 0 0 1 0 0 0 16384
  | | - Tag 0x0009 (36 bytes, fixed32s[9]):
  | |     664c: 00 01 00 00 00 00 00 00 00 00 00 00 00 00 00 00 [................]
  | |     665c: 00 01 00 00 00 00 00 00 00 00 00 00 00 00 00 00 [................]
  | |     666c: 40 00 00 00                                     [@...]
  | | PreviewTime = 0
  | | - Tag 0x0012 (4 bytes, int32u[1]):
  | |     6670: 00 00 00 00                                     [....]
  | | PreviewDuration = 0
  | | - Tag 0x0013 (4 bytes, int32u[1]):
  | |     6674: 00 00 00 00                                     [....]
  | | PosterTime = 0
  | | - Tag 0x0014 (4 bytes, int32u[1]):
  | |     6678: 00 00 00 00                                     [....]
  | | SelectionTime = 0
  | | - Tag 0x0015 (4 bytes, int32u[1]):
  | |     667c: 00 00 00 00                                     [....]
  | | SelectionDuration = 0
  | | - Tag 0x0016 (4 bytes, int32u[1]):
  | |     6680: 00 00 00 00                                     [....]
  | | CurrentTime = 0
  | | - Tag 0x0017 (4 bytes, int32u[1]):
  | |     6684: 00 00 00 00                                     [....]
  | | NextTrackID = 5
  | | - Tag 0x0018 (4 bytes, int32u[1]):
  | |     6688: 00 00 00 05                                     [....]
  | Track (SubDirectory) -->
  | - Tag 'trak' (476 bytes):
  |     6694: 00 00 00 5c 74 6b 68 64 00 00 00 07 d6 b3 12 81 [...\tkhd........]
  |     66a4: d6 b3 12 81 00 00 00 01 00 00 00 00 00 00 00 01 [................]
  |     66b4: 00 00 00 00 00 00 00 00 00 00 00 00 00 00 00 00 [................]
  |     66c4: 00 01 00 00 00 00 00 00 00 00 00 00 00 00 00 00 [................]
  |     66d4: 00 01 00 00 00 00 00 00 00 00 00 00 00 00 00 00 [................]
  |     [snip 396 bytes]
  | + [Track directory]
  | | TrackHeader (SubDirectory) -->
  | | - Tag 'tkhd' (84 bytes):
  | |     669c: 00 00 00 07 d6 b3 12 81 d6 b3 12 81 00 00 00 01 [................]
  | |     66ac: 00 00 00 00 00 00 00 01 00 00 00 00 00 00 00 00 [................]
  | |     66bc: 00 00 00 00 00 00 00 00 00 01 00 00 00 00 00 00 [................]
  | |     66cc: 00 00 00 00 00 00 00 00 00 01 00 00 00 00 00 00 [................]
  | |     66dc: 00 00 00 00 00 00 00 00 40 00 00 00 17 70 00 00 [........@....p..]
  | |     66ec: 0f a0 00 00                                     [....]
  | | + [BinaryData directory, 84 bytes]
  | | | TrackHeaderVersion = 0
  | | | - Tag 0x0000 (1 bytes, int8u[1]):
  | | |     669c: 00                                              [.]
  | | | TrackCreateDate = 3602059905
  | | | - Tag 0x0001 (4 bytes, int32u[1]):
  | | |     66a0: d6 b3 12 81                                     [....]
  | | | TrackModifyDate = 3602059905
  | | | - Tag 0x0002 (4 bytes, int32u[1]):
  | | |     66a4: d6 b3 12 81                                     [....]
  | | | TrackID = 1
  | | | - Tag 0x0003 (4 bytes, int32u[1]):
  | | |     66a8: 00 00 00 01                                     [....]
  | | | TrackDuration = 1
  | | | - Tag 0x0005 (4 bytes, int32u[1]):
  | | |     66b0: 00 00 00 01                                     [....]
  | | | TrackLayer = 0
  | | | - Tag 0x0008 (2 bytes, int16u[1]):
  | | |     66bc: 00 00                                           [..]
  | | | TrackVolume = 0
  | | | - Tag 0x0009 (2 bytes, int16u[1]):
  | | |     66c0: 00 00                                           [..]
  | | | MatrixStructure = 1 0 0 0 1 0 0 0 16384
  | | | - Tag 0x000a (36 bytes, fixed32s[9]):
  | | |     66c4: 00 01 00 00 00 00 00 00 00 00 00 00 00 00 00 00 [................]
  | | |     66d4: 00 01 00 00 00 00 00 00 00 00 00 00 00 00 00 00 [................]
  | | |     66e4: 40 00 00 00                                     [@...]
  | | | ImageWidth = 393216000
  | | | - Tag 0x0013 (4 bytes, int32u[1]):
  | | |     66e8: 17 70 00 00                                     [.p..]
  | | | ImageHeight = 262144000
  | | | - Tag 0x0014 (4 bytes, int32u[1]):
  | | |     66ec: 0f a0 00 00                                     [....]
  | | Media (SubDirectory) -->
  | | - Tag 'mdia' (376 bytes):
  | |     66f8: 00 00 00 20 6d 64 68 64 00 00 00 00 d6 b3 12 81 [... mdhd........]
  | |     6708: d6 b3 12 81 00 00 00 01 00 00 00 01 15 c7 00 00 [................]
  | |     6718: 00 00 00 21 68 64 6c 72 00 00 00 00 00 00 00 00 [...!hdlr........]
  | |     6728: 76 69 64 65 00 00 00 00 00 00 00 00 00 00 00 00 [vide............]
  | |     6738: 00 00 00 01 37 6d 69 6e 66 00 00 00 14 76 6d 68 [....7minf....vmh]
  | |     [snip 296 bytes]
  | | + [Media directory]
  | | | MediaHeader (SubDirectory) -->
  | | | - Tag 'mdhd' (24 bytes):
  | | |     6700: 00 00 00 00 d6 b3 12 81 d6 b3 12 81 00 00 00 01 [................]
  | | |     6710: 00 00 00 01 15 c7 00 00                         [........]
  | | | + [BinaryData directory, 24 bytes]
  | | | | MediaHeaderVersion = 0
  | | | | - Tag 0x0000 (4 bytes, int32u[1]):
  | | | |     6700: 00 00 00 00                                     [....]
  | | | | MediaCreateDate = 3602059905
  | | | | - Tag 0x0001 (4 bytes, int32u[1]):
  | | | |     6704: d6 b3 12 81                                     [....]
  | | | | MediaModifyDate = 3602059905
  | | | | - Tag 0x0002 (4 bytes, int32u[1]):
  | | | |     6708: d6 b3 12 81                                     [....]
  | | | | MediaTimeScale = 1
  | | | | - Tag 0x0003 (4 bytes, int32u[1]):
  | | | |     670c: 00 00 00 01                                     [....]
  | | | | MediaDuration = 1
  | | | | - Tag 0x0004 (4 bytes, int32u[1]):
  | | | |     6710: 00 00 00 01                                     [....]
  | | | | MediaLanguageCode = 5575
  | | | | - Tag 0x0005 (2 bytes, int16u[1]):
  | | | |     6714: 15 c7                                           [..]
  | | | Handler (SubDirectory) -->
  | | | - Tag 'hdlr' (25 bytes):
  | | |     6720: 00 00 00 00 00 00 00 00 76 69 64 65 00 00 00 00 [........vide....]
  | | |     6730: 00 00 00 00 00 00 00 00 00                      [.........]
  | | | + [BinaryData directory, 25 bytes]
  | | | | HandlerClass = 
  | | | | - Tag 0x0004 (4 bytes, undef[4]):
  | | | |     6724: 00 00 00 00                                     [....]
  | | | | HandlerType = vide
  | | | | - Tag 0x0008 (4 bytes, undef[4]):
  | | | |     6728: 76 69 64 65                                     [vide]
  | | | | HandlerVendorID = 
  | | | | - Tag 0x000c (4 bytes, undef[4]):
  | | | |     672c: 00 00 00 00                                     [....]
  | | | | HandlerDescription = 
  | | | | - Tag 0x0018 (1 bytes, string[1]):
  | | | |     6738: 00                                              [.]
  | | | MediaInfo (SubDirectory) -->
  | | | - Tag 'minf' (303 bytes):
  | | |     6741: 00 00 00 14 76 6d 68 64 00 00 00 01 00 00 00 00 [....vmhd........]
  | | |     6751: 00 00 00 00 00 00 00 24 64 69 6e 66 00 00 00 1c [.......$dinf....]
  | | |     6761: 64 72 65 66 00 00 00 00 00 00 00 01 00 00 00 0c [dref............]
  | | |     6771: 75 72 6c 20 00 00 00 01 00 00 00 f7 73 74 62 6c [url ........stbl]
  | | |     6781: 00 00 00 80 73 74 73 64 00 00 00 00 00 00 00 01 [....stsd........]
  | | |     [snip 223 bytes]
  | | | + [MediaInfo directory]
  | | | | VideoHeader (SubDirectory) -->
  | | | | - Tag 'vmhd' (12 bytes):
  | | | |     6749: 00 00 00 01 00 00 00 00 00 00 00 00             [............]
  | | | | + [BinaryData directory, 12 bytes]
  | | | | | GraphicsMode = 0
  | | | | | - Tag 0x0002 (2 bytes, int16u[1]):
  | | | | |     674d: 00 00                                           [..]
  | | | | | OpColor = 0 0 0
  | | | | | - Tag 0x0003 (6 bytes, int16u[3]):
  | | | | |     674f: 00 00 00 00 00 00                               [......]
  | | | | DataInfo (SubDirectory) -->
  | | | | - Tag 'dinf' (28 bytes):
  | | | |     675d: 00 00 00 1c 64 72 65 66 00 00 00 00 00 00 00 01 [....dref........]
  | | | |     676d: 00 00 00 0c 75 72 6c 20 00 00 00 01             [....url ....]
  | | | | + [DataInfo directory]
  | | | | | DataRef (SubDirectory) -->
  | | | | | - Tag 'dref' (20 bytes):
  | | | | |     6765: 00 00 00 00 00 00 00 01 00 00 00 0c 75 72 6c 20 [............url ]
  | | | | |     6775: 00 00 00 01                                     [....]
  | | | | | + [DataRef directory]
  | | | | | | URL = .
  | | | | | | - Tag 'url ' (4 bytes, undef):
  | | | | | |     6775: 00 00 00 01                                     [....]
  | | | | SampleTable (SubDirectory) -->
  | | | | - Tag 'stbl' (239 bytes):
  | | | |     6781: 00 00 00 80 73 74 73 64 00 00 00 00 00 00 00 01 [....stsd........]
  | | | |     6791: 00 00 00 70 43 52 41 57 00 00 00 00 00 00 00 01 [...pCRAW........]
  | | | |     67a1: 00 00 00 00 00 00 00 00 00 00 00 00 00 00 00 00 [................]
  | | | |     67b1: 17 70 0f a0 00 48 00 00 00 48 00 00 00 00 00 00 [.p...H...H......]
  | | | |     67c1: 00 01 00 00 00 00 00 00 00 00 00 00 00 00 00 00 [................]
  | | | |     [snip 159 bytes]
  | | | | + [SampleTable directory]
  | | | | | VideoSampleDesc (SubDirectory) -->
  | | | | | - Tag 'stsd' (120 bytes):
  | | | | |     6789: 00 00 00 00 00 00 00 01 00 00 00 70 43 52 41 57 [...........pCRAW]
  | | | | |     6799: 00 00 00 00 00 00 00 01 00 00 00 00 00 00 00 00 [................]
  | | | | |     67a9: 00 00 00 00 00 00 00 00 17 70 0f a0 00 48 00 00 [.........p...H..]
  | | | | |     67b9: 00 48 00 00 00 00 00 00 00 01 00 00 00 00 00 00 [.H..............]
  | | | | |     67c9: 00 00 00 00 00 00 00 00 00 00 00 00 00 00 00 00 [................]
  | | | | |     [snip 40 bytes]
  | | | | | + [BinaryData directory, 98 bytes]
  | | | | | | CompressorID = CRAW
  | | | | | | - Tag 0x0002 (4 bytes, string[4]):
  | | | | | |     6795: 43 52 41 57                                     [CRAW]
  | | | | | | VendorID = 
  | | | | | | - Tag 0x000a (4 bytes, string[4]):
  | | | | | |     67a5: 00 00 00 00                                     [....]
  | | | | | | SourceImageWidth = 6000
  | | | | | | - Tag 0x0010 (2 bytes, int16u[1]):
  | | | | | |     67b1: 17 70                                           [.p]
  | | | | | | SourceImageHeight = 4000
  | | | | | | - Tag 0x0011 (2 bytes, int16u[1]):
  | | | | | |     67b3: 0f a0                                           [..]
  | | | | | | XResolution = 72
  | | | | | | - Tag 0x0012 (4 bytes, fixed32u[1]):
  | | | | | |     67b5: 00 48 00 00                                     [.H..]
  | | | | | | YResolution = 72
  | | | | | | - Tag 0x0014 (4 bytes, fixed32u[1]):
  | | | | | |     67b9: 00 48 00 00                                     [.H..]
  | | | | | | CompressorName = 
  | | | | | | - Tag 0x0019 (32 bytes, string[32]):
  | | | | | |     67c3: 00 00 00 00 00 00 00 00 00 00 00 00 00 00 00 00 [................]
  | | | | | |     67d3: 00 00 00 00 00 00 00 00 00 00 00 00 00 00 00 00 [................]
  | | | | | | BitDepth = 24
  | | | | | | - Tag 0x0029 (2 bytes, int16u[1]):
  | | | | | |     67e3: 00 18                                           [..]
  | | | | | + [VideoSampleDesc directory]
  | | | | | | JPEGInfo = 
  | | | | | | - Tag 'JPEG' (4 bytes):
  | | | | | |     67f3: 00 00 00 00                                     [....]
  | | | | | | Unknown_free = 
  | | | | | | - Tag 'free' (2 bytes):
  | | | | | |     67ff: 00 00                                           [..]
  | | | | | VideoFrameRate = ...
  | | | | | - Tag 'stts' (16 bytes, undef):
  | | | | |     6809: 00 00 00 00 00 00 00 01 00 00 00 01 00 00 00 01 [................]
  | | | | | SampleToChunk = ....
  | | | | | - Tag 'stsc' (20 bytes):
  | | | | |     6821: 00 00 00 00 00 00 00 01 00 00 00 01 00 00 00 01 [................]
  | | | | |     6831: 00 00 00 01                                     [....]
  | | | | | SampleSizes = 0&..
  | | | | | - Tag 'stsz' (12 bytes):
  | | | | |     683d: 00 00 00 00 00 30 26 b9 00 00 00 01             [.....0&.....]
  | | | | | Unknown_free = 
  | | | | | - Tag 'free' (7 bytes):
  | | | | |     6851: 00 00 00 00 00 00 00                            [.......]
  | | | | | ChunkOffset64 = ..7y
  | | | | | - Tag 'co64' (16 bytes):
  | | | | |     6860: 00 00 00 00 00 00 00 01 00 00 00 00 00 07 37 79 [..............7y]
---- Extract Embedded ----
Track1 Type='JPEG' Format='', Sample 1 of 1 (3155641 bytes)
   73779: ff d8 ff db 00 84 00 06 04 04 06 04 04 06 06 04 [................]
   73789: 06 06 06 06 08 0a 11 0a 0a 08 08 0a 13 0f 0f 0c [................]
   73799: 11 17 15 19 17 17 15 17 15 19 1d 23 1f 19 1b 23 [...........#...#]
   737a9: 1b 1b 17 1f 2c 1f 23 25 28 2a 2a 2a 19 1f 2c 30 [....,.#%(***..,0]
   737b9: 2c 28 30 23 28 2a 28 01 06 06 06 0a 08 0a 13 0a [,(0#(*(.........]
    [snip 3155561 bytes]
SampleTime = 0
SampleDuration = 1
JpgFromRaw = .........................................#...#....,.#%(***..,0,(0#(*(.....[snip]
- Tag 'JPEG' (3155641 bytes):
   73779: ff d8 ff db 00 84 00 06 04 04 06 04 04 06 06 04 [................]
   73789: 06 06 06 06 08 0a 11 0a 0a 08 08 0a 13 0f 0f 0c [................]
   73799: 11 17 15 19 17 17 15 17 15 19 1d 23 1f 19 1b 23 [...........#...#]
   737a9: 1b 1b 17 1f 2c 1f 23 25 28 2a 2a 2a 19 1f 2c 30 [....,.#%(***..,0]
   737b9: 2c 28 30 23 28 2a 28 01 06 06 06 0a 08 0a 13 0a [,(0#(*(.........]
    [snip 3155561 bytes]
--------------------------
  | Track (SubDirectory) -->
  | - Tag 'trak' (576 bytes):
  |     6878: 00 00 00 5c 74 6b 68 64 00 00 00 07 d6 b3 12 81 [...\tkhd........]
  |     6888: d6 b3 12 81 00 00 00 02 00 00 00 00 00 00 00 01 [................]
  |     6898: 00 00 00 00 00 00 00 00 00 00 00 00 00 00 00 00 [................]
  |     68a8: 00 01 00 00 00 00 00 00 00 00 00 00 00 00 00 00 [................]
  |     68b8: 00 01 00 00 00 00 00 00 00 00 00 00 00 00 00 00 [................]
  |     [snip 496 bytes]
  | + [Track directory]
  | | TrackHeader (SubDirectory) -->
  | | - Tag 'tkhd' (84 bytes):
  | |     6880: 00 00 00 07 d6 b3 12 81 d6 b3 12 81 00 00 00 02 [................]
  | |     6890: 00 00 00 00 00 00 00 01 00 00 00 00 00 00 00 00 [................]
  | |     68a0: 00 00 00 00 00 00 00 00 00 01 00 00 00 00 00 00 [................]
  | |     68b0: 00 00 00 00 00 00 00 00 00 01 00 00 00 00 00 00 [................]
  | |     68c0: 00 00 00 00 00 00 00 00 40 00 00 00 06 58 00 00 [........@....X..]
  | |     68d0: 04 38 00 00                                     [.8..]
  | | + [BinaryData directory, 84 bytes]
  | | | TrackHeaderVersion = 0
  | | | - Tag 0x0000 (1 bytes, int8u[1]):
  | | |     6880: 00                                              [.]
  | | | TrackCreateDate = 3602059905
  | | | - Tag 0x0001 (4 bytes, int32u[1]):
  | | |     6884: d6 b3 12 81                                     [....]
  | | | TrackModifyDate = 3602059905
  | | | - Tag 0x0002 (4 bytes, int32u[1]):
  | | |     6888: d6 b3 12 81                                     [....]
  | | | TrackID = 2
  | | | - Tag 0x0003 (4 bytes, int32u[1]):
  | | |     688c: 00 00 00 02                                     [....]
  | | | TrackDuration = 1
  | | | - Tag 0x0005 (4 bytes, int32u[1]):
  | | |     6894: 00 00 00 01                                     [....]
  | | | TrackLayer = 0
  | | | - Tag 0x0008 (2 bytes, int16u[1]):
  | | |     68a0: 00 00                                           [..]
  | | | TrackVolume = 0
  | | | - Tag 0x0009 (2 bytes, int16u[1]):
  | | |     68a4: 00 00                                           [..]
  | | | MatrixStructure = 1 0 0 0 1 0 0 0 16384
  | | | - Tag 0x000a (36 bytes, fixed32s[9]):
  | | |     68a8: 00 01 00 00 00 00 00 00 00 00 00 00 00 00 00 00 [................]
  | | |     68b8: 00 01 00 00 00 00 00 00 00 00 00 00 00 00 00 00 [................]
  | | |     68c8: 40 00 00 00                                     [@...]
  | | | ImageWidth = 106430464
  | | | - Tag 0x0013 (4 bytes, int32u[1]):
  | | |     68cc: 06 58 00 00                                     [.X..]
  | | | ImageHeight = 70778880
  | | | - Tag 0x0014 (4 bytes, int32u[1]):
  | | |     68d0: 04 38 00 00                                     [.8..]
  | | Media (SubDirectory) -->
  | | - Tag 'mdia' (476 bytes):
  | |     68dc: 00 00 00 20 6d 64 68 64 00 00 00 00 d6 b3 12 81 [... mdhd........]
  | |     68ec: d6 b3 12 81 00 00 00 01 00 00 00 01 15 c7 00 00 [................]
  | |     68fc: 00 00 00 21 68 64 6c 72 00 00 00 00 00 00 00 00 [...!hdlr........]
  | |     690c: 76 69 64 65 00 00 00 00 00 00 00 00 00 00 00 00 [vide............]
  | |     691c: 00 00 00 01 9b 6d 69 6e 66 00 00 00 14 76 6d 68 [.....minf....vmh]
  | |     [snip 396 bytes]
  | | + [Media directory]
  | | | MediaHeader (SubDirectory) -->
  | | | - Tag 'mdhd' (24 bytes):
  | | |     68e4: 00 00 00 00 d6 b3 12 81 d6 b3 12 81 00 00 00 01 [................]
  | | |     68f4: 00 00 00 01 15 c7 00 00                         [........]
  | | | + [BinaryData directory, 24 bytes]
  | | | | MediaHeaderVersion = 0
  | | | | - Tag 0x0000 (4 bytes, int32u[1]):
  | | | |     68e4: 00 00 00 00                                     [....]
  | | | | MediaCreateDate = 3602059905
  | | | | - Tag 0x0001 (4 bytes, int32u[1]):
  | | | |     68e8: d6 b3 12 81                                     [....]
  | | | | MediaModifyDate = 3602059905
  | | | | - Tag 0x0002 (4 bytes, int32u[1]):
  | | | |     68ec: d6 b3 12 81                                     [....]
  | | | | MediaTimeScale = 1
  | | | | - Tag 0x0003 (4 bytes, int32u[1]):
  | | | |     68f0: 00 00 00 01                                     [....]
  | | | | MediaDuration = 1
  | | | | - Tag 0x0004 (4 bytes, int32u[1]):
  | | | |     68f4: 00 00 00 01                                     [....]
  | | | | MediaLanguageCode = 5575
  | | | | - Tag 0x0005 (2 bytes, int16u[1]):
  | | | |     68f8: 15 c7                                           [..]
  | | | Handler (SubDirectory) -->
  | | | - Tag 'hdlr' (25 bytes):
  | | |     6904: 00 00 00 00 00 00 00 00 76 69 64 65 00 00 00 00 [........vide....]
  | | |     6914: 00 00 00 00 00 00 00 00 00                      [.........]
  | | | + [BinaryData directory, 25 bytes]
  | | | | HandlerClass = 
  | | | | - Tag 0x0004 (4 bytes, undef[4]):
  | | | |     6908: 00 00 00 00                                     [....]
  | | | | HandlerType = vide
  | | | | - Tag 0x0008 (4 bytes, undef[4]):
  | | | |     690c: 76 69 64 65                                     [vide]
  | | | | HandlerVendorID = 
  | | | | - Tag 0x000c (4 bytes, undef[4]):
  | | | |     6910: 00 00 00 00                                     [....]
  | | | | HandlerDescription = 
  | | | | - Tag 0x0018 (1 bytes, string[1]):
  | | | |     691c: 00                                              [.]
  | | | MediaInfo (SubDirectory) -->
  | | | - Tag 'minf' (403 bytes):
  | | |     6925: 00 00 00 14 76 6d 68 64 00 00 00 01 00 00 00 00 [....vmhd........]
  | | |     6935: 00 00 00 00 00 00 00 24 64 69 6e 66 00 00 00 1c [.......$dinf....]
  | | |     6945: 64 72 65 66 00 00 00 00 00 00 00 01 00 00 00 0c [dref............]
  | | |     6955: 75 72 6c 20 00 00 00 01 00 00 01 5b 73 74 62 6c [url .......[stbl]
  | | |     6965: 00 00 00 e4 73 74 73 64 00 00 00 00 00 00 00 01 [....stsd........]
  | | |     [snip 323 bytes]
  | | | + [MediaInfo directory]
  | | | | VideoHeader (SubDirectory) -->
  | | | | - Tag 'vmhd' (12 bytes):
  | | | |     692d: 00 00 00 01 00 00 00 00 00 00 00 00             [............]
  | | | | + [BinaryData directory, 12 bytes]
  | | | | | GraphicsMode = 0
  | | | | | - Tag 0x0002 (2 bytes, int16u[1]):
  | | | | |     6931: 00 00                                           [..]
  | | | | | OpColor = 0 0 0
  | | | | | - Tag 0x0003 (6 bytes, int16u[3]):
  | | | | |     6933: 00 00 00 00 00 00                               [......]
  | | | | DataInfo (SubDirectory) -->
  | | | | - Tag 'dinf' (28 bytes):
  | | | |     6941: 00 00 00 1c 64 72 65 66 00 00 00 00 00 00 00 01 [....dref........]
  | | | |     6951: 00 00 00 0c 75 72 6c 20 00 00 00 01             [....url ....]
  | | | | + [DataInfo directory]
  | | | | | DataRef (SubDirectory) -->
  | | | | | - Tag 'dref' (20 bytes):
  | | | | |     6949: 00 00 00 00 00 00 00 01 00 00 00 0c 75 72 6c 20 [............url ]
  | | | | |     6959: 00 00 00 01                                     [....]
  | | | | | + [DataRef directory]
  | | | | | | URL = .
  | | | | | | - Tag 'url ' (4 bytes, undef):
  | | | | | |     6959: 00 00 00 01                                     [....]
  | | | | SampleTable (SubDirectory) -->
  | | | | - Tag 'stbl' (339 bytes):
  | | | |     6965: 00 00 00 e4 73 74 73 64 00 00 00 00 00 00 00 01 [....stsd........]
  | | | |     6975: 00 00 00 d4 43 52 41 57 00 00 00 00 00 00 00 01 [....CRAW........]
  | | | |     6985: 00 00 00 00 00 00 00 00 00 00 00 00 00 00 00 00 [................]
  | | | |     6995: 06 58 04 38 00 48 00 00 00 48 00 00 00 00 00 00 [.X.8.H...H......]
  | | | |     69a5: 00 01 00 00 00 00 00 00 00 00 00 00 00 00 00 00 [................]
  | | | |     [snip 259 bytes]
  | | | | + [SampleTable directory]
  | | | | | VideoSampleDesc (SubDirectory) -->
  | | | | | - Tag 'stsd' (220 bytes):
  | | | | |     696d: 00 00 00 00 00 00 00 01 00 00 00 d4 43 52 41 57 [............CRAW]
  | | | | |     697d: 00 00 00 00 00 00 00 01 00 00 00 00 00 00 00 00 [................]
  | | | | |     698d: 00 00 00 00 00 00 00 00 06 58 04 38 00 48 00 00 [.........X.8.H..]
  | | | | |     699d: 00 48 00 00 00 00 00 00 00 01 00 00 00 00 00 00 [.H..............]
  | | | | |     69ad: 00 00 00 00 00 00 00 00 00 00 00 00 00 00 00 00 [................]
  | | | | |     [snip 140 bytes]
  | | | | | + [BinaryData directory, 98 bytes]
  | | | | | | CompressorID = CRAW
  | | | | | | - Tag 0x0002 (4 bytes, string[4]):
  | | | | | |     6979: 43 52 41 57                                     [CRAW]
  | | | | | | VendorID = 
  | | | | | | - Tag 0x000a (4 bytes, string[4]):
  | | | | | |     6989: 00 00 00 00                                     [....]
  | | | | | | SourceImageWidth = 1624
  | | | | | | - Tag 0x0010 (2 bytes, int16u[1]):
  | | | | | |     6995: 06 58                                           [.X]
  | | | | | | SourceImageHeight = 1080
  | | | | | | - Tag 0x0011 (2 bytes, int16u[1]):
  | | | | | |     6997: 04 38                                           [.8]
  | | | | | | XResolution = 72
  | | | | | | - Tag 0x0012 (4 bytes, fixed32u[1]):
  | | | | | |     6999: 00 48 00 00                                     [.H..]
  | | | | | | YResolution = 72
  | | | | | | - Tag 0x0014 (4 bytes, fixed32u[1]):
  | | | | | |     699d: 00 48 00 00                                     [.H..]
  | | | | | | CompressorName = 
  | | | | | | - Tag 0x0019 (32 bytes, string[32]):
  | | | | | |     69a7: 00 00 00 00 00 00 00 00 00 00 00 00 00 00 00 00 [................]
  | | | | | |     69b7: 00 00 00 00 00 00 00 00 00 00 00 00 00 00 00 00 [................]
  | | | | | | BitDepth = 24
  | | | | | | - Tag 0x0029 (2 bytes, int16u[1]):
  | | | | | |     69c7: 00 18                                           [..]
  | | | | | + [VideoSampleDesc directory]
  | | | | | | Unknown_CMP1 = .0..X.8.X.8.Ap........
  | | | | | | - Tag 'CMP1' (52 bytes):
  | | | | | |     69d7: ff 00 00 30 01 00 00 00 00 00 06 58 00 00 04 38 [...0.......X...8]
  | | | | | |     69e7: 00 00 06 58 00 00 04 38 0e 41 00 00 00 00 00 70 [...X...8.A.....p]
  | | | | | |     69f7: 00 00 00 00 01 01 00 00 01 01 00 00 01 01 00 00 [................]
  | | | | | |     6a07: 01 01 00 00                                     [....]
  | | | | | | CDI1 (SubDirectory) -->
  | | | | | | - Tag 'CDI1' (44 bytes):
  | | | | | |     6a13: 00 00 00 00 00 00 00 28 49 41 44 31 00 00 00 00 [.......(IAD1....]
  | | | | | |     6a23: 06 58 04 38 00 01 00 00 00 01 00 00 00 01 00 00 [.X.8............]
  | | | | | |     6a33: 06 54 04 37 00 00 00 00 06 57 04 37             [.T.7.....W.7]
  | | | | | | + [CDI1 directory]
  | | | | | | | Unknown_IAD1 = .X.8....T.7.W.7
  | | | | | | | - Tag 'IAD1' (32 bytes):
  | | | | | | |     6a1f: 00 00 00 00 06 58 04 38 00 01 00 00 00 01 00 00 [.....X.8........]
  | | | | | | |     6a2f: 00 01 00 00 06 54 04 37 00 00 00 00 06 57 04 37 [.....T.7.....W.7]
  | | | | | | Unknown_free = 
  | | | | | | - Tag 'free' (2 bytes):
  | | | | | |     6a47: 00 00                                           [..]
  | | | | | VideoFrameRate = ...
  | | | | | - Tag 'stts' (16 bytes, undef):
  | | | | |     6a51: 00 00 00 00 00 00 00 01 00 00 00 01 00 00 00 01 [................]
  | | | | | SampleToChunk = ....
  | | | | | - Tag 'stsc' (20 bytes):
  | | | | |     6a69: 00 00 00 00 00 00 00 01 00 00 00 01 00 00 00 01 [................]
  | | | | |     6a79: 00 00 00 01                                     [....]
  | | | | | SampleSizes = ...
  | | | | | - Tag 'stsz' (12 bytes):
  | | | | |     6a85: 00 00 00 00 00 1f 00 80 00 00 00 01             [............]
  | | | | | Unknown_free = 
  | | | | | - Tag 'free' (7 bytes):
  | | | | |     6a99: 00 00 00 00 00 00 00                            [.......]
  | | | | | ChunkOffset64 = .7^9
  | | | | | - Tag 'co64' (16 bytes):
  | | | | |     6aa8: 00 00 00 00 00 00 00 01 00 00 00 00 00 37 5e 39 [.............7^9]
  | Track (SubDirectory) -->
  | - Tag 'trak' (592 bytes):
  |     6ac0: 00 00 00 5c 74 6b 68 64 00 00 00 07 d6 b3 12 81 [...\tkhd........]
  |     6ad0: d6 b3 12 81 00 00 00 03 00 00 00 00 00 00 00 01 [................]
  |     6ae0: 00 00 00 00 00 00 00 00 00 00 00 00 00 00 00 00 [................]
  |     6af0: 00 01 00 00 00 00 00 00 00 00 00 00 00 00 00 00 [................]
  |     6b00: 00 01 00 00 00 00 00 00 00 00 00 00 00 00 00 00 [................]
  |     [snip 512 bytes]
  | + [Track directory]
  | | TrackHeader (SubDirectory) -->
  | | - Tag 'tkhd' (84 bytes):
  | |     6ac8: 00 00 00 07 d6 b3 12 81 d6 b3 12 81 00 00 00 03 [................]
  | |     6ad8: 00 00 00 00 00 00 00 01 00 00 00 00 00 00 00 00 [................]
  | |     6ae8: 00 00 00 00 00 00 00 00 00 01 00 00 00 00 00 00 [................]
  | |     6af8: 00 00 00 00 00 00 00 00 00 01 00 00 00 00 00 00 [................]
  | |     6b08: 00 00 00 00 00 00 00 00 40 00 00 00 18 90 00 00 [........@.......]
  | |     6b18: 0f d8 00 00                                     [....]
  | | + [BinaryData directory, 84 bytes]
  | | | TrackHeaderVersion = 0
  | | | - Tag 0x0000 (1 bytes, int8u[1]):
  | | |     6ac8: 00                                              [.]
  | | | TrackCreateDate = 3602059905
  | | | - Tag 0x0001 (4 bytes, int32u[1]):
  | | |     6acc: d6 b3 12 81                                     [....]
  | | | TrackModifyDate = 3602059905
  | | | - Tag 0x0002 (4 bytes, int32u[1]):
  | | |     6ad0: d6 b3 12 81                                     [....]
  | | | TrackID = 3
  | | | - Tag 0x0003 (4 bytes, int32u[1]):
  | | |     6ad4: 00 00 00 03                                     [....]
  | | | TrackDuration = 1
  | | | - Tag 0x0005 (4 bytes, int32u[1]):
  | | |     6adc: 00 00 00 01                                     [....]
  | | | TrackLayer = 0
  | | | - Tag 0x0008 (2 bytes, int16u[1]):
  | | |     6ae8: 00 00                                           [..]
  | | | TrackVolume = 0
  | | | - Tag 0x0009 (2 bytes, int16u[1]):
  | | |     6aec: 00 00                                           [..]
  | | | MatrixStructure = 1 0 0 0 1 0 0 0 16384
  | | | - Tag 0x000a (36 bytes, fixed32s[9]):
  | | |     6af0: 00 01 00 00 00 00 00 00 00 00 00 00 00 00 00 00 [................]
  | | |     6b00: 00 01 00 00 00 00 00 00 00 00 00 00 00 00 00 00 [................]
  | | |     6b10: 40 00 00 00                                     [@...]
  | | | ImageWidth = 412090368
  | | | - Tag 0x0013 (4 bytes, int32u[1]):
  | | |     6b14: 18 90 00 00                                     [....]
  | | | ImageHeight = 265814016
  | | | - Tag 0x0014 (4 bytes, int32u[1]):
  | | |     6b18: 0f d8 00 00                                     [....]
  | | Media (SubDirectory) -->
  | | - Tag 'mdia' (492 bytes):
  | |     6b24: 00 00 00 20 6d 64 68 64 00 00 00 00 d6 b3 12 81 [... mdhd........]
  | |     6b34: d6 b3 12 81 00 00 00 01 00 00 00 01 15 c7 00 00 [................]
  | |     6b44: 00 00 00 21 68 64 6c 72 00 00 00 00 00 00 00 00 [...!hdlr........]
  | |     6b54: 76 69 64 65 00 00 00 00 00 00 00 00 00 00 00 00 [vide............]
  | |     6b64: 00 00 00 01 ab 6d 69 6e 66 00 00 00 14 76 6d 68 [.....minf....vmh]
  | |     [snip 412 bytes]
  | | + [Media directory]
  | | | MediaHeader (SubDirectory) -->
  | | | - Tag 'mdhd' (24 bytes):
  | | |     6b2c: 00 00 00 00 d6 b3 12 81 d6 b3 12 81 00 00 00 01 [................]
  | | |     6b3c: 00 00 00 01 15 c7 00 00                         [........]
  | | | + [BinaryData directory, 24 bytes]
  | | | | MediaHeaderVersion = 0
  | | | | - Tag 0x0000 (4 bytes, int32u[1]):
  | | | |     6b2c: 00 00 00 00                                     [....]
  | | | | MediaCreateDate = 3602059905
  | | | | - Tag 0x0001 (4 bytes, int32u[1]):
  | | | |     6b30: d6 b3 12 81                                     [....]
  | | | | MediaModifyDate = 3602059905
  | | | | - Tag 0x0002 (4 bytes, int32u[1]):
  | | | |     6b34: d6 b3 12 81                                     [....]
  | | | | MediaTimeScale = 1
  | | | | - Tag 0x0003 (4 bytes, int32u[1]):
  | | | |     6b38: 00 00 00 01                                     [....]
  | | | | MediaDuration = 1
  | | | | - Tag 0x0004 (4 bytes, int32u[1]):
  | | | |     6b3c: 00 00 00 01                                     [....]
  | | | | MediaLanguageCode = 5575
  | | | | - Tag 0x0005 (2 bytes, int16u[1]):
  | | | |     6b40: 15 c7                                           [..]
  | | | Handler (SubDirectory) -->
  | | | - Tag 'hdlr' (25 bytes):
  | | |     6b4c: 00 00 00 00 00 00 00 00 76 69 64 65 00 00 00 00 [........vide....]
  | | |     6b5c: 00 00 00 00 00 00 00 00 00                      [.........]
  | | | + [BinaryData directory, 25 bytes]
  | | | | HandlerClass = 
  | | | | - Tag 0x0004 (4 bytes, undef[4]):
  | | | |     6b50: 00 00 00 00                                     [....]
  | | | | HandlerType = vide
  | | | | - Tag 0x0008 (4 bytes, undef[4]):
  | | | |     6b54: 76 69 64 65                                     [vide]
  | | | | HandlerVendorID = 
  | | | | - Tag 0x000c (4 bytes, undef[4]):
  | | | |     6b58: 00 00 00 00                                     [....]
  | | | | HandlerDescription = 
  | | | | - Tag 0x0018 (1 bytes, string[1]):
  | | | |     6b64: 00                                              [.]
  | | | MediaInfo (SubDirectory) -->
  | | | - Tag 'minf' (419 bytes):
  | | |     6b6d: 00 00 00 14 76 6d 68 64 00 00 00 01 00 00 00 00 [....vmhd........]
  | | |     6b7d: 00 00 00 00 00 00 00 24 64 69 6e 66 00 00 00 1c [.......$dinf....]
  | | |     6b8d: 64 72 65 66 00 00 00 00 00 00 00 01 00 00 00 0c [dref............]
  | | |     6b9d: 75 72 6c 20 00 00 00 01 00 00 01 6b 73 74 62 6c [url .......kstbl]
  | | |     6bad: 00 00 00 f4 73 74 73 64 00 00 00 00 00 00 00 01 [....stsd........]
  | | |     [snip 339 bytes]
  | | | + [MediaInfo directory]
  | | | | VideoHeader (SubDirectory) -->
  | | | | - Tag 'vmhd' (12 bytes):
  | | | |     6b75: 00 00 00 01 00 00 00 00 00 00 00 00             [............]
  | | | | + [BinaryData directory, 12 bytes]
  | | | | | GraphicsMode = 0
  | | | | | - Tag 0x0002 (2 bytes, int16u[1]):
  | | | | |     6b79: 00 00                                           [..]
  | | | | | OpColor = 0 0 0
  | | | | | - Tag 0x0003 (6 bytes, int16u[3]):
  | | | | |     6b7b: 00 00 00 00 00 00                               [......]
  | | | | DataInfo (SubDirectory) -->
  | | | | - Tag 'dinf' (28 bytes):
  | | | |     6b89: 00 00 00 1c 64 72 65 66 00 00 00 00 00 00 00 01 [....dref........]
  | | | |     6b99: 00 00 00 0c 75 72 6c 20 00 00 00 01             [....url ....]
  | | | | + [DataInfo directory]
  | | | | | DataRef (SubDirectory) -->
  | | | | | - Tag 'dref' (20 bytes):
  | | | | |     6b91: 00 00 00 00 00 00 00 01 00 00 00 0c 75 72 6c 20 [............url ]
  | | | | |     6ba1: 00 00 00 01                                     [....]
  | | | | | + [DataRef directory]
  | | | | | | URL = .
  | | | | | | - Tag 'url ' (4 bytes, undef):
  | | | | | |     6ba1: 00 00 00 01                                     [....]
  | | | | SampleTable (SubDirectory) -->
  | | | | - Tag 'stbl' (355 bytes):
  | | | |     6bad: 00 00 00 f4 73 74 73 64 00 00 00 00 00 00 00 01 [....stsd........]
  | | | |     6bbd: 00 00 00 e4 43 52 41 57 00 00 00 00 00 00 00 01 [....CRAW........]
  | | | |     6bcd: 00 00 00 00 00 00 00 00 00 00 00 00 00 00 00 00 [................]
  | | | |     6bdd: 18 90 0f d8 00 48 00 00 00 48 00 00 00 00 00 00 [.....H...H......]
  | | | |     6bed: 00 01 00 00 00 00 00 00 00 00 00 00 00 00 00 00 [................]
  | | | |     [snip 275 bytes]
  | | | | + [SampleTable directory]
  | | | | | VideoSampleDesc (SubDirectory) -->
  | | | | | - Tag 'stsd' (236 bytes):
  | | | | |     6bb5: 00 00 00 00 00 00 00 01 00 00 00 e4 43 52 41 57 [............CRAW]
  | | | | |     6bc5: 00 00 00 00 00 00 00 01 00 00 00 00 00 00 00 00 [................]
  | | | | |     6bd5: 00 00 00 00 00 00 00 00 18 90 0f d8 00 48 00 00 [.............H..]
  | | | | |     6be5: 00 48 00 00 00 00 00 00 00 01 00 00 00 00 00 00 [.H..............]
  | | | | |     6bf5: 00 00 00 00 00 00 00 00 00 00 00 00 00 00 00 00 [................]
  | | | | |     [snip 156 bytes]
  | | | | | + [BinaryData directory, 98 bytes]
  | | | | | | CompressorID = CRAW
  | | | | | | - Tag 0x0002 (4 bytes, string[4]):
  | | | | | |     6bc1: 43 52 41 57                                     [CRAW]
  | | | | | | VendorID = 
  | | | | | | - Tag 0x000a (4 bytes, string[4]):
  | | | | | |     6bd1: 00 00 00 00                                     [....]
  | | | | | | SourceImageWidth = 6288
  | | | | | | - Tag 0x0010 (2 bytes, int16u[1]):
  | | | | | |     6bdd: 18 90                                           [..]
  | | | | | | SourceImageHeight = 4056
  | | | | | | - Tag 0x0011 (2 bytes, int16u[1]):
  | | | | | |     6bdf: 0f d8                                           [..]
  | | | | | | XResolution = 72
  | | | | | | - Tag 0x0012 (4 bytes, fixed32u[1]):
  | | | | | |     6be1: 00 48 00 00                                     [.H..]
  | | | | | | YResolution = 72
  | | | | | | - Tag 0x0014 (4 bytes, fixed32u[1]):
  | | | | | |     6be5: 00 48 00 00                                     [.H..]
  | | | | | | CompressorName = 
  | | | | | | - Tag 0x0019 (32 bytes, string[32]):
  | | | | | |     6bef: 00 00 00 00 00 00 00 00 00 00 00 00 00 00 00 00 [................]
  | | | | | |     6bff: 00 00 00 00 00 00 00 00 00 00 00 00 00 00 00 00 [................]
  | | | | | | BitDepth = 24
  | | | | | | - Tag 0x0029 (2 bytes, int16u[1]):
  | | | | | |     6c0f: 00 18                                           [..]
  | | | | | + [VideoSampleDesc directory]
  | | | | | | Unknown_CMP1 = .0......H...@.........
  | | | | | | - Tag 'CMP1' (52 bytes):
  | | | | | |     6c1f: ff 00 00 30 01 00 00 00 00 00 18 90 00 00 0f d8 [...0............]
  | | | | | |     6c2f: 00 00 0c 48 00 00 0f d8 0e 40 00 00 00 00 00 d8 [...H.....@......]
  | | | | | |     6c3f: 00 00 00 00 01 01 00 00 01 01 00 00 01 01 00 00 [................]
  | | | | | |     6c4f: 01 01 00 00                                     [....]
  | | | | | | CDI1 (SubDirectory) -->
  | | | | | | - Tag 'CDI1' (60 bytes):
  | | | | | |     6c5b: 00 00 00 00 00 00 00 38 49 41 44 31 00 00 00 00 [.......8IAD1....]
  | | | | | |     6c6b: 18 90 0f d8 00 01 00 02 00 01 00 00 01 14 00 30 [...............0]
  | | | | | |     6c7b: 18 83 0f cf 00 00 00 00 01 07 0f d7 01 08 00 00 [................]
  | | | | | |     6c8b: 18 8f 00 23 01 08 00 24 18 8f 0f d7             [...#...$....]
  | | | | | | + [CDI1 directory]
  | | | | | | | Unknown_IAD1 = .........0............#..$....
  | | | | | | | - Tag 'IAD1' (48 bytes):
  | | | | | | |     6c67: 00 00 00 00 18 90 0f d8 00 01 00 02 00 01 00 00 [................]
  | | | | | | |     6c77: 01 14 00 30 18 83 0f cf 00 00 00 00 01 07 0f d7 [...0............]
  | | | | | | |     6c87: 01 08 00 00 18 8f 00 23 01 08 00 24 18 8f 0f d7 [.......#...$....]
  | | | | | | Unknown_free = 
  | | | | | | - Tag 'free' (2 bytes):
  | | | | | |     6c9f: 00 00                                           [..]
  | | | | | VideoFrameRate = ...
  | | | | | - Tag 'stts' (16 bytes, undef):
  | | | | |     6ca9: 00 00 00 00 00 00 00 01 00 00 00 01 00 00 00 01 [................]
  | | | | | SampleToChunk = ....
  | | | | | - Tag 'stsc' (20 bytes):
  | | | | |     6cc1: 00 00 00 00 00 00 00 01 00 00 00 01 00 00 00 01 [................]
  | | | | |     6cd1: 00 00 00 01                                     [....]
  | | | | | SampleSizes = ..2..
  | | | | | - Tag 'stsz' (12 bytes):
  | | | | |     6cdd: 00 00 00 00 02 18 32 d8 00 00 00 01             [......2.....]
  | | | | | Unknown_free = 
  | | | | | - Tag 'free' (7 bytes):
  | | | | |     6cf1: 00 00 00 00 00 00 00                            [.......]
  | | | | | ChunkOffset64 = .V^.
  | | | | | - Tag 'co64' (16 bytes):
  | | | | |     6d00: 00 00 00 00 00 00 00 01 00 00 00 00 00 56 5e b9 [.............V^.]
  | Track (SubDirectory) -->
  | - Tag 'trak' (432 bytes):
  |     6d18: 00 00 00 5c 74 6b 68 64 00 00 00 07 d6 b3 12 81 [...\tkhd........]
  |     6d28: d6 b3 12 81 00 00 00 04 00 00 00 00 00 00 00 01 [................]
  |     6d38: 00 00 00 00 00 00 00 00 00 00 00 00 00 00 00 00 [................]
  |     6d48: 00 01 00 00 00 00 00 00 00 00 00 00 00 00 00 00 [................]
  |     6d58: 00 01 00 00 00 00 00 00 00 00 00 00 00 00 00 00 [................]
  |     [snip 352 bytes]
  | + [Track directory]
  | | TrackHeader (SubDirectory) -->
  | | - Tag 'tkhd' (84 bytes):
  | |     6d20: 00 00 00 07 d6 b3 12 81 d6 b3 12 81 00 00 00 04 [................]
  | |     6d30: 00 00 00 00 00 00 00 01 00 00 00 00 00 00 00 00 [................]
  | |     6d40: 00 00 00 00 00 00 00 00 00 01 00 00 00 00 00 00 [................]
  | |     6d50: 00 00 00 00 00 00 00 00 00 01 00 00 00 00 00 00 [................]
  | |     6d60: 00 00 00 00 00 00 00 00 40 00 00 00 00 00 00 00 [........@.......]
  | |     6d70: 00 00 00 00                                     [....]
  | | + [BinaryData directory, 84 bytes]
  | | | TrackHeaderVersion = 0
  | | | - Tag 0x0000 (1 bytes, int8u[1]):
  | | |     6d20: 00                                              [.]
  | | | TrackCreateDate = 3602059905
  | | | - Tag 0x0001 (4 bytes, int32u[1]):
  | | |     6d24: d6 b3 12 81                                     [....]
  | | | TrackModifyDate = 3602059905
  | | | - Tag 0x0002 (4 bytes, int32u[1]):
  | | |     6d28: d6 b3 12 81                                     [....]
  | | | TrackID = 4
  | | | - Tag 0x0003 (4 bytes, int32u[1]):
  | | |     6d2c: 00 00 00 04                                     [....]
  | | | TrackDuration = 1
  | | | - Tag 0x0005 (4 bytes, int32u[1]):
  | | |     6d34: 00 00 00 01                                     [....]
  | | | TrackLayer = 0
  | | | - Tag 0x0008 (2 bytes, int16u[1]):
  | | |     6d40: 00 00                                           [..]
  | | | TrackVolume = 0
  | | | - Tag 0x0009 (2 bytes, int16u[1]):
  | | |     6d44: 00 00                                           [..]
  | | | MatrixStructure = 1 0 0 0 1 0 0 0 16384
  | | | - Tag 0x000a (36 bytes, fixed32s[9]):
  | | |     6d48: 00 01 00 00 00 00 00 00 00 00 00 00 00 00 00 00 [................]
  | | |     6d58: 00 01 00 00 00 00 00 00 00 00 00 00 00 00 00 00 [................]
  | | |     6d68: 40 00 00 00                                     [@...]
  | | | ImageWidth = 0
  | | | - Tag 0x0013 (4 bytes, int32u[1]):
  | | |     6d6c: 00 00 00 00                                     [....]
  | | | ImageHeight = 0
  | | | - Tag 0x0014 (4 bytes, int32u[1]):
  | | |     6d70: 00 00 00 00                                     [....]
  | | Media (SubDirectory) -->
  | | - Tag 'mdia' (332 bytes):
  | |     6d7c: 00 00 00 20 6d 64 68 64 00 00 00 00 d6 b3 12 81 [... mdhd........]
  | |     6d8c: d6 b3 12 81 00 00 00 01 00 00 00 01 15 c7 00 00 [................]
  | |     6d9c: 00 00 00 21 68 64 6c 72 00 00 00 00 00 00 00 00 [...!hdlr........]
  | |     6dac: 6d 65 74 61 00 00 00 00 00 00 00 00 00 00 00 00 [meta............]
  | |     6dbc: 00 00 00 01 0b 6d 69 6e 66 00 00 00 0c 6e 6d 68 [.....minf....nmh]
  | |     [snip 252 bytes]
  | | + [Media directory]
  | | | MediaHeader (SubDirectory) -->
  | | | - Tag 'mdhd' (24 bytes):
  | | |     6d84: 00 00 00 00 d6 b3 12 81 d6 b3 12 81 00 00 00 01 [................]
  | | |     6d94: 00 00 00 01 15 c7 00 00                         [........]
  | | | + [BinaryData directory, 24 bytes]
  | | | | MediaHeaderVersion = 0
  | | | | - Tag 0x0000 (4 bytes, int32u[1]):
  | | | |     6d84: 00 00 00 00                                     [....]
  | | | | MediaCreateDate = 3602059905
  | | | | - Tag 0x0001 (4 bytes, int32u[1]):
  | | | |     6d88: d6 b3 12 81                                     [....]
  | | | | MediaModifyDate = 3602059905
  | | | | - Tag 0x0002 (4 bytes, int32u[1]):
  | | | |     6d8c: d6 b3 12 81                                     [....]
  | | | | MediaTimeScale = 1
  | | | | - Tag 0x0003 (4 bytes, int32u[1]):
  | | | |     6d90: 00 00 00 01                                     [....]
  | | | | MediaDuration = 1
  | | | | - Tag 0x0004 (4 bytes, int32u[1]):
  | | | |     6d94: 00 00 00 01                                     [....]
  | | | | MediaLanguageCode = 5575
  | | | | - Tag 0x0005 (2 bytes, int16u[1]):
  | | | |     6d98: 15 c7                                           [..]
  | | | Handler (SubDirectory) -->
  | | | - Tag 'hdlr' (25 bytes):
  | | |     6da4: 00 00 00 00 00 00 00 00 6d 65 74 61 00 00 00 00 [........meta....]
  | | |     6db4: 00 00 00 00 00 00 00 00 00                      [.........]
  | | | + [BinaryData directory, 25 bytes]
  | | | | HandlerClass = 
  | | | | - Tag 0x0004 (4 bytes, undef[4]):
  | | | |     6da8: 00 00 00 00                                     [....]
  | | | | HandlerType = meta
  | | | | - Tag 0x0008 (4 bytes, undef[4]):
  | | | |     6dac: 6d 65 74 61                                     [meta]
  | | | | HandlerVendorID = 
  | | | | - Tag 0x000c (4 bytes, undef[4]):
  | | | |     6db0: 00 00 00 00                                     [....]
  | | | | HandlerDescription = 
  | | | | - Tag 0x0018 (1 bytes, string[1]):
  | | | |     6dbc: 00                                              [.]
  | | | MediaInfo (SubDirectory) -->
  | | | - Tag 'minf' (259 bytes):
  | | |     6dc5: 00 00 00 0c 6e 6d 68 64 00 00 00 00 00 00 00 24 [....nmhd.......$]
  | | |     6dd5: 64 69 6e 66 00 00 00 1c 64 72 65 66 00 00 00 00 [dinf....dref....]
  | | |     6de5: 00 00 00 01 00 00 00 0c 75 72 6c 20 00 00 00 01 [........url ....]
  | | |     6df5: 00 00 00 d3 73 74 62 6c 00 00 00 5c 73 74 73 64 [....stbl...\stsd]
  | | |     6e05: 00 00 00 00 00 00 00 01 00 00 00 4c 43 54 4d 44 [...........LCTMD]
  | | |     [snip 179 bytes]
  | | | + [MediaInfo directory]
  | | | | NullMediaHeader = 
  | | | | - Tag 'nmhd' (4 bytes):
  | | | |     6dcd: 00 00 00 00                                     [....]
  | | | | DataInfo (SubDirectory) -->
  | | | | - Tag 'dinf' (28 bytes):
  | | | |     6dd9: 00 00 00 1c 64 72 65 66 00 00 00 00 00 00 00 01 [....dref........]
  | | | |     6de9: 00 00 00 0c 75 72 6c 20 00 00 00 01             [....url ....]
  | | | | + [DataInfo directory]
  | | | | | DataRef (SubDirectory) -->
  | | | | | - Tag 'dref' (20 bytes):
  | | | | |     6de1: 00 00 00 00 00 00 00 01 00 00 00 0c 75 72 6c 20 [............url ]
  | | | | |     6df1: 00 00 00 01                                     [....]
  | | | | | + [DataRef directory]
  | | | | | | URL = .
  | | | | | | - Tag 'url ' (4 bytes, undef):
  | | | | | |     6df1: 00 00 00 01                                     [....]
  | | | | SampleTable (SubDirectory) -->
  | | | | - Tag 'stbl' (203 bytes):
  | | | |     6dfd: 00 00 00 5c 73 74 73 64 00 00 00 00 00 00 00 01 [...\stsd........]
  | | | |     6e0d: 00 00 00 4c 43 54 4d 44 00 00 00 00 00 00 00 01 [...LCTMD........]
  | | | |     6e1d: 00 00 00 07 00 00 00 01 00 00 00 18 00 00 00 03 [................]
  | | | |     6e2d: 00 00 00 10 00 00 00 04 00 00 00 18 00 00 00 05 [................]
  | | | |     6e3d: 00 00 00 28 00 00 00 07 00 00 06 ba 00 00 00 08 [...(............]
  | | | |     [snip 123 bytes]
  | | | | + [SampleTable directory]
  | | | | | MetaSampleDesc (SubDirectory) -->
  | | | | | - Tag 'stsd' (84 bytes):
  | | | | |     6e05: 00 00 00 00 00 00 00 01 00 00 00 4c 43 54 4d 44 [...........LCTMD]
  | | | | |     6e15: 00 00 00 00 00 00 00 01 00 00 00 07 00 00 00 01 [................]
  | | | | |     6e25: 00 00 00 18 00 00 00 03 00 00 00 10 00 00 00 04 [................]
  | | | | |     6e35: 00 00 00 18 00 00 00 05 00 00 00 28 00 00 00 07 [...........(....]
  | | | | |     6e45: 00 00 06 ba 00 00 00 08 00 00 93 56 00 00 00 09 [...........V....]
  | | | | |     6e55: 00 00 05 d4                                     [....]
  | | | | | + [BinaryData directory, 76 bytes]
  | | | | | | MetaFormat = CTMD
  | | | | | | - Tag 0x0004 (4 bytes, undef[4]):
  | | | | | |     6e11: 43 54 4d 44                                     [CTMD]
  | | | | | TimeToSampleTable = ...
  | | | | | - Tag 'stts' (16 bytes):
  | | | | |     6e61: 00 00 00 00 00 00 00 01 00 00 00 01 00 00 00 01 [................]
  | | | | | SampleToChunk = ....
  | | | | | - Tag 'stsc' (20 bytes):
  | | | | |     6e79: 00 00 00 00 00 00 00 01 00 00 00 01 00 00 00 01 [................]
  | | | | |     6e89: 00 00 00 01                                     [....]
  | | | | | SampleSizes = .L.
  | | | | | - Tag 'stsz' (12 bytes):
  | | | | |     6e95: 00 00 00 00 00 00 a0 4c 00 00 00 01             [.......L....]
  | | | | | Unknown_free = 
  | | | | | - Tag 'free' (7 bytes):
  | | | | |     6ea9: 00 00 00 00 00 00 00                            [.......]
  | | | | | ChunkOffset64 = ..n..
  | | | | | - Tag 'co64' (16 bytes):
  | | | | |     6eb8: 00 00 00 00 00 00 00 01 00 00 00 00 02 6e 91 91 [.............n..]
---- Extract Embedded ----
Track4 Type='meta' Format='CTMD', Sample 1 of 1 (41036 bytes)
 26e9191: 18 00 00 00 01 00 00 00 00 01 00 00 00 00 e2 07 [................]
 26e91a1: 02 15 0c 0b 2d 25 00 00 10 00 00 00 03 00 00 00 [....-%..........]
 26e91b1: 00 01 00 00 ff ff ff ff 18 00 00 00 04 00 00 00 [................]
 26e91c1: 00 01 ff ff 27 00 01 00 ff ff ff ff ff ff ff ff [....'...........]
 26e91d1: 28 00 00 00 05 00 00 00 00 01 ff ff 38 00 0a 00 [(...........8...]
    [snip 40956 bytes]
SampleTime = 0
SampleDuration = 1
CTMD (SubDirectory) -->
- Tag 'CTMD' (41036 bytes):
 26e9191: 18 00 00 00 01 00 00 00 00 01 00 00 00 00 e2 07 [................]
 26e91a1: 02 15 0c 0b 2d 25 00 00 10 00 00 00 03 00 00 00 [....-%..........]
 26e91b1: 00 01 00 00 ff ff ff ff 18 00 00 00 04 00 00 00 [................]
 26e91c1: 00 01 ff ff 27 00 01 00 ff ff ff ff ff ff ff ff [....'...........]
 26e91d1: 28 00 00 00 05 00 00 00 00 01 ff ff 38 00 0a 00 [(...........8...]
    [snip 40956 bytes]
+ [CTMD type 1 directory, 12 bytes]
| TimeStamp = ......-%
| - Tag 0x0001 (12 bytes):
|  26e919d: 00 00 e2 07 02 15 0c 0b 2d 25 00 00             [........-%..]
+ [CTMD type 3 directory, 4 bytes]
|  26e91b5: ff ff ff ff                                     [....]
+ [CTMD type 4 directory, 12 bytes]
| FocalInfo (SubDirectory) -->
| - Tag 0x0004 (12 bytes):
|  26e91c5: 27 00 01 00 ff ff ff ff ff ff ff ff             ['...........]
| + [BinaryData directory, 12 bytes]
| | FocalLength = 39
| | - Tag 0x0000 (4 bytes, rational32u[1]):
| |  26e91c5: 27 00 01 00                                     ['...]
+ [CTMD type 5 directory, 28 bytes]
| ExposureInfo (SubDirectory) -->
| - Tag 0x0005 (28 bytes):
|  26e91dd: 38 00 0a 00 01 00 3c 00 80 3e 00 00 01 00 00 00 [8.....<..>......]
|  26e91ed: ff ff ff ff 00 00 00 00 ff ff ff ff             [............]
| + [BinaryData directory, 28 bytes]
| | FNumber = 5.6
| | - Tag 0x0000 (4 bytes, rational32u[1]):
| |  26e91dd: 38 00 0a 00                                     [8...]
| | ExposureTime = 0.01666667
| | - Tag 0x0001 (4 bytes, rational32u[1]):
| |  26e91e1: 01 00 3c 00                                     [..<.]
| | ISO = 16000
| | - Tag 0x0002 (4 bytes, int32u[1]):
| |  26e91e5: 80 3e 00 00                                     [.>..]
+ [CTMD type 7 directory, 1710 bytes]
| TimedExif7 (SubDirectory) -->
| - Tag 0x0007 (1710 bytes):
|  26e9205: 1e 00 00 00 69 87 00 00 49 49 2a 00 08 00 00 00 [....i...II*.....]
|  26e9215: 01 00 06 a4 03 00 01 00 00 00 00 00 00 00 90 06 [................]
|  26e9225: 00 00 7c 92 00 00 49 49 2a 00 08 00 00 00 06 00 [..|...II*.......]
|  26e9235: 01 00 03 00 31 00 00 00 52 00 00 00 04 00 03 00 [....1...R.......]
|  26e9245: 22 00 00 00 b4 00 00 00 26 00 03 00 60 02 00 00 [".......&...`...]
|     [snip 1630 bytes]
| + [TimedExif directory, 1710 bytes]
| | ExifIFD (SubDirectory) -->
| | - Tag 0x8769 (22 bytes):
| |  26e920d: 49 49 2a 00 08 00 00 00 01 00 06 a4 03 00 01 00 [II*.............]
| |  26e921d: 00 00 00 00 00 00                               [......]
| | + [TIFF directory]
| | | ExifByteOrder = II
| | | + [ExifIFD directory with 1 entries]
| | | | 0)  SceneCaptureType = 0
| | | |     - Tag 0xa406 (2 bytes, int16u[1]):
| | | |      26e921f: 00 00                                           [..]
| | MakerNoteCanon (SubDirectory) -->
| | - Tag 0x927c (1672 bytes):
| |  26e922b: 49 49 2a 00 08 00 00 00 06 00 01 00 03 00 31 00 [II*...........1.]
| |  26e923b: 00 00 52 00 00 00 04 00 03 00 22 00 00 00 b4 00 [..R.......".....]
| |  26e924b: 00 00 26 00 03 00 60 02 00 00 f8 00 00 00 93 00 [..&...`.........]
| |  26e925b: 03 00 42 00 00 00 b8 05 00 00 a0 00 03 00 12 00 [..B.............]
| |  26e926b: 00 00 3c 06 00 00 16 40 04 00 0a 00 00 00 60 06 [..<....@......`.]
| |     [snip 1592 bytes]
| | + [TIFF directory]
| | | + [Canon directory with 6 entries]
| | | | 0)  CanonCameraSettings (SubDirectory) -->
| | | |     - Tag 0x0001 (98 bytes, int16u[49] read as undef[98]):
| | | |      26e927d: 62 00 02 00 00 00 04 00 00 00 00 00 00 00 00 01 [b...............]
| | | |      26e928d: 00 00 0d 00 00 00 01 00 00 00 00 00 00 00 ff 7f [................]
| | | |      26e929d: 0f 00 03 00 02 00 00 00 03 00 ff ff 39 10 2d 00 [............9.-.]
| | | |      26e92ad: 0f 00 01 00 a4 00 50 01 00 00 08 00 00 00 00 00 [......P.........]
| | | |      26e92bd: ff ff ff ff ff ff 00 00 00 00 00 00 00 00 ff ff [................]
| | | |         [snip 18 bytes]
| | | | + [BinaryData directory, 98 bytes]
| | | | | MacroMode = 2
| | | | | - Tag 0x0001 (2 bytes, int16s[1]):
| | | | |  26e927f: 02 00                                           [..]
| | | | | SelfTimer = 0
| | | | | - Tag 0x0002 (2 bytes, int16s[1]):
| | | | |  26e9281: 00 00                                           [..]
| | | | | Quality = 4
| | | | | - Tag 0x0003 (2 bytes, int16s[1]):
| | | | |  26e9283: 04 00                                           [..]
| | | | | CanonFlashMode = 0
| | | | | - Tag 0x0004 (2 bytes, int16s[1]):
| | | | |  26e9285: 00 00                                           [..]
| | | | | ContinuousDrive = 0
| | | | | - Tag 0x0005 (2 bytes, int16s[1]):
| | | | |  26e9287: 00 00                                           [..]
| | | | | FocusMode = 256
| | | | | - Tag 0x0007 (2 bytes, int16s[1]):
| | | | |  26e928b: 00 01                                           [..]
| | | | | RecordMode = 13
| | | | | - Tag 0x0009 (2 bytes, int16s[1]):
| | | | |  26e928f: 0d 00                                           [..]
| | | | | CanonImageSize = 0
| | | | | - Tag 0x000a (2 bytes, int16s[1]):
| | | | |  26e9291: 00 00                                           [..]
| | | | | EasyMode = 1
| | | | | - Tag 0x000b (2 bytes, int16s[1]):
| | | | |  26e9293: 01 00                                           [..]
| | | | | DigitalZoom = 0
| | | | | - Tag 0x000c (2 bytes, int16s[1]):
| | | | |  26e9295: 00 00                                           [..]
| | | | | Contrast = 0
| | | | | - Tag 0x000d (2 bytes, int16s[1]):
| | | | |  26e9297: 00 00                                           [..]
| | | | | Saturation = 0
| | | | | - Tag 0x000e (2 bytes, int16s[1]):
| | | | |  26e9299: 00 00                                           [..]
| | | | | Sharpness = 32767
| | | | | - Tag 0x000f (2 bytes, int16s[1]):
| | | | |  26e929b: ff 7f                                           [..]
| | | | | CameraISO = 15
| | | | | - Tag 0x0010 (2 bytes, int16s[1]):
| | | | |  26e929d: 0f 00                                           [..]
| | | | | MeteringMode = 3
| | | | | - Tag 0x0011 (2 bytes, int16s[1]):
| | | | |  26e929f: 03 00                                           [..]
| | | | | FocusRange = 2
| | | | | - Tag 0x0012 (2 bytes, int16s[1]):
| | | | |  26e92a1: 02 00                                           [..]
| | | | | AFPoint = 0
| | | | | - Tag 0x0013 (2 bytes, int16s[1]):
| | | | |  26e92a3: 00 00                                           [..]
| | | | | CanonExposureMode = 3
| | | | | - Tag 0x0014 (2 bytes, int16s[1]):
| | | | |  26e92a5: 03 00                                           [..]
| | | | | LensType = 4153
| | | | | - Tag 0x0016 (2 bytes, int16u[1]):
| | | | |  26e92a9: 39 10                                           [9.]
| | | | | MaxFocalLength = 45
| | | | | - Tag 0x0017 (2 bytes, int16u[1]):
| | | | |  26e92ab: 2d 00                                           [-.]
| | | | | MinFocalLength = 15
| | | | | - Tag 0x0018 (2 bytes, int16u[1]):
| | | | |  26e92ad: 0f 00                                           [..]
| | | | | FocalUnits = 1
| | | | | - Tag 0x0019 (2 bytes, int16s[1]):
| | | | |  26e92af: 01 00                                           [..]
| | | | | MaxAperture = 164
| | | | | - Tag 0x001a (2 bytes, int16s[1]):
| | | | |  26e92b1: a4 00                                           [..]
| | | | | MinAperture = 336
| | | | | - Tag 0x001b (2 bytes, int16s[1]):
| | | | |  26e92b3: 50 01                                           [P.]
| | | | | FlashActivity = 0
| | | | | - Tag 0x001c (2 bytes, int16s[1]):
| | | | |  26e92b5: 00 00                                           [..]
| | | | | FlashBits = 8
| | | | | - Tag 0x001d (2 bytes, int16s[1]):
| | | | |  26e92b7: 08 00                                           [..]
| | | | | FocusContinuous = -1
| | | | | - Tag 0x0020 (2 bytes, int16s[1]):
| | | | |  26e92bd: ff ff                                           [..]
| | | | | AESetting = -1
| | | | | - Tag 0x0021 (2 bytes, int16s[1]):
| | | | |  26e92bf: ff ff                                           [..]
| | | | | ImageStabilization = -1
| | | | | - Tag 0x0022 (2 bytes, int16s[1]):
| | | | |  26e92c1: ff ff                                           [..]
| | | | | DisplayAperture = 0
| | | | | - Tag 0x0023 (2 bytes, int16s[1]):
| | | | |  26e92c3: 00 00                                           [..]
| | | | | ZoomSourceWidth = 0
| | | | | - Tag 0x0024 (2 bytes, int16s[1]):
| | | | |  26e92c5: 00 00                                           [..]
| | | | | ZoomTargetWidth = 0
| | | | | - Tag 0x0025 (2 bytes, int16s[1]):
| | | | |  26e92c7: 00 00                                           [..]
| | | | | SpotMeteringMode = -1
| | | | | - Tag 0x0027 (2 bytes, int16s[1]):
| | | | |  26e92cb: ff ff                                           [..]
| | | | | PhotoEffect = -1
| | | | | - Tag 0x0028 (2 bytes, int16s[1]):
| | | | |  26e92cd: ff ff                                           [..]
| | | | | ManualFlashOutput = 0
| | | | | - Tag 0x0029 (2 bytes, int16s[1]):
| | | | |  26e92cf: 00 00                                           [..]
| | | | | ColorTone = 0
| | | | | - Tag 0x002a (2 bytes, int16s[1]):
| | | | |  26e92d1: 00 00                                           [..]
| | | | | SRAWQuality = 0
| | | | | - Tag 0x002e (2 bytes, int16s[1]):
| | | | |  26e92d9: 00 00                                           [..]
| | | | 1)  CanonShotInfo (SubDirectory) -->
| | | |     - Tag 0x0004 (68 bytes, int16u[34] read as undef[68]):
| | | |      26e92df: 44 00 00 00 8c 01 dc ff a0 00 c0 00 00 00 00 00 [D...............]
| | | |      26e92ef: 03 00 00 00 08 00 08 00 a8 00 00 00 00 00 00 00 [................]
| | | |      26e92ff: 00 00 00 00 01 00 00 00 00 00 a4 00 c4 00 59 00 [..............Y.]
| | | |      26e930f: 00 00 00 00 f8 00 00 00 ff ff ff ff ff ff 00 00 [................]
| | | |      26e931f: 00 00 00 00                                     [....]
| | | | + [BinaryData directory, 68 bytes]
| | | | | AutoISO = 0
| | | | | - Tag 0x0001 (2 bytes, int16s[1]):
| | | | |  26e92e1: 00 00                                           [..]
| | | | | BaseISO = 396
| | | | | - Tag 0x0002 (2 bytes, int16s[1]):
| | | | |  26e92e3: 8c 01                                           [..]
| | | | | MeasuredEV = -36
| | | | | - Tag 0x0003 (2 bytes, int16s[1]):
| | | | |  26e92e5: dc ff                                           [..]
| | | | | TargetAperture = 160
| | | | | - Tag 0x0004 (2 bytes, int16s[1]):
| | | | |  26e92e7: a0 00                                           [..]
| | | | | TargetExposureTime = 192
| | | | | - Tag 0x0005 (2 bytes, int16s[1]):
| | | | |  26e92e9: c0 00                                           [..]
| | | | | ExposureCompensation = 0
| | | | | - Tag 0x0006 (2 bytes, int16s[1]):
| | | | |  26e92eb: 00 00                                           [..]
| | | | | WhiteBalance = 0
| | | | | - Tag 0x0007 (2 bytes, int16s[1]):
| | | | |  26e92ed: 00 00                                           [..]
| | | | | SlowShutter = 3
| | | | | - Tag 0x0008 (2 bytes, int16s[1]):
| | | | |  26e92ef: 03 00                                           [..]
| | | | | SequenceNumber = 0
| | | | | - Tag 0x0009 (2 bytes, int16s[1]):
| | | | |  26e92f1: 00 00                                           [..]
| | | | | OpticalZoomCode = 8
| | | | | - Tag 0x000a (2 bytes, int16s[1]):
| | | | |  26e92f3: 08 00                                           [..]
| | | | | CameraTemperature = 168
| | | | | - Tag 0x000c (2 bytes, int16s[1]):
| | | | |  26e92f7: a8 00                                           [..]
| | | | | FlashGuideNumber = 0
| | | | | - Tag 0x000d (2 bytes, int16s[1]):
| | | | |  26e92f9: 00 00                                           [..]
| | | | | AFPointsInFocus = 0
| | | | | - Tag 0x000e (2 bytes, int16s[1]):
| | | | |  26e92fb: 00 00                                           [..]
| | | | | FlashExposureComp = 0
| | | | | - Tag 0x000f (2 bytes, int16s[1]):
| | | | |  26e92fd: 00 00                                           [..]
| | | | | AutoExposureBracketing = 0
| | | | | - Tag 0x0010 (2 bytes, int16s[1]):
| | | | |  26e92ff: 00 00                                           [..]
| | | | | AEBBracketValue = 0
| | | | | - Tag 0x0011 (2 bytes, int16s[1]):
| | | | |  26e9301: 00 00                                           [..]
| | | | | ControlMode = 1
| | | | | - Tag 0x0012 (2 bytes, int16s[1]):
| | | | |  26e9303: 01 00                                           [..]
| | | | | FocusDistanceUpper = 0
| | | | | - Tag 0x0013 (2 bytes, int16u[1]):
| | | | |  26e9305: 00 00                                           [..]
| | | | | FNumber = 164
| | | | | - Tag 0x0015 (2 bytes, int16s[1]):
| | | | |  26e9309: a4 00                                           [..]
| | | | | ExposureTime = 196
| | | | | - Tag 0x0016 (2 bytes, int16s[1]):
| | | | |  26e930b: c4 00                                           [..]
| | | | | MeasuredEV2 = 89
| | | | | - Tag 0x0017 (2 bytes, int16s[1]):
| | | | |  26e930d: 59 00                                           [Y.]
| | | | | BulbDuration = 0
| | | | | - Tag 0x0018 (2 bytes, int16s[1]):
| | | | |  26e930f: 00 00                                           [..]
| | | | | CameraType = 248
| | | | | - Tag 0x001a (2 bytes, int16s[1]):
| | | | |  26e9313: f8 00                                           [..]
| | | | | AutoRotate = 0
| | | | | - Tag 0x001b (2 bytes, int16s[1]):
| | | | |  26e9315: 00 00                                           [..]
| | | | | NDFilter = -1
| | | | | - Tag 0x001c (2 bytes, int16s[1]):
| | | | |  26e9317: ff ff                                           [..]
| | | | | SelfTimer2 = -1
| | | | | - Tag 0x001d (2 bytes, int16s[1]):
| | | | |  26e9319: ff ff                                           [..]
| | | | | FlashOutput = 0
| | | | | - Tag 0x0021 (2 bytes, int16s[1]):
| | | | |  26e9321: 00 00                                           [..]
| | | | 2)  CanonAFInfo2 (SubDirectory) -->
| | | |     - Tag 0x0026 (1216 bytes, int16u[608] read as undef[1216]):
| | | |      26e9323: c0 04 06 00 8f 00 01 00 70 17 a0 0f 70 17 a0 0f [........p...p...]
| | | |      26e9333: 5a 01 00 00 00 00 00 00 00 00 00 00 00 00 00 00 [Z...............]
| | | |      26e9343: 00 00 00 00 00 00 00 00 00 00 00 00 00 00 00 00 [................]
| | | |      26e9353: 00 00 00 00 00 00 00 00 00 00 00 00 00 00 00 00 [................]
| | | |      26e9363: 00 00 00 00 00 00 00 00 00 00 00 00 00 00 00 00 [................]
| | | |         [snip 1136 bytes]
| | | | + [SerialData directory, 1216 bytes]
| | | | | 0)  AFInfoSize = 1216
| | | | |     - Tag 0x0000 (2 bytes, int16u[1]):
| | | | |      26e9323: c0 04                                           [..]
| | | | | 1)  AFAreaMode = 6
| | | | |     - Tag 0x0001 (2 bytes, int16u[1]):
| | | | |      26e9325: 06 00                                           [..]
| | | | | 2)  NumAFPoints = 143
| | | | |     - Tag 0x0002 (2 bytes, int16u[1]):
| | | | |      26e9327: 8f 00                                           [..]
| | | | | 3)  ValidAFPoints = 1
| | | | |     - Tag 0x0003 (2 bytes, int16u[1]):
| | | | |      26e9329: 01 00                                           [..]
| | | | | 4)  CanonImageWidth = 6000
| | | | |     - Tag 0x0004 (2 bytes, int16u[1]):
| | | | |      26e932b: 70 17                                           [p.]
| | | | | 5)  CanonImageHeight = 4000
| | | | |     - Tag 0x0005 (2 bytes, int16u[1]):
| | | | |      26e932d: a0 0f                                           [..]
| | | | | 6)  AFImageWidth = 6000
| | | | |     - Tag 0x0006 (2 bytes, int16u[1]):
| | | | |      26e932f: 70 17                                           [p.]
| | | | | 7)  AFImageHeight = 4000
| | | | |     - Tag 0x0007 (2 bytes, int16u[1]):
| | | | |      26e9331: a0 0f                                           [..]
| | | | | 8)  AFAreaWidths = 346 0 0 0 0 0 0 0 0 0 0 0 0 0 0 0 0 0 0 0 0 0 0 0 0 0 0 0 [snip]
| | | | |     - Tag 0x0008 (286 bytes, int16s[143]):
| | | | |      26e9333: 5a 01 00 00 00 00 00 00 00 00 00 00 00 00 00 00 [Z...............]
| | | | |      26e9343: 00 00 00 00 00 00 00 00 00 00 00 00 00 00 00 00 [................]
| | | | |      26e9353: 00 00 00 00 00 00 00 00 00 00 00 00 00 00 00 00 [................]
| | | | |      26e9363: 00 00 00 00 00 00 00 00 00 00 00 00 00 00 00 00 [................]
| | | | |      26e9373: 00 00 00 00 00 00 00 00 00 00 00 00 00 00 00 00 [................]
| | | | |         [snip 206 bytes]
| | | | | 9)  AFAreaHeights = 346 0 0 0 0 0 0 0 0 0 0 0 0 0 0 0 0 0 0 0 0 0 0 0 0 0 0 0[snip]
| | | | |     - Tag 0x0009 (286 bytes, int16s[143]):
| | | | |      26e9451: 5a 01 00 00 00 00 00 00 00 00 00 00 00 00 00 00 [Z...............]
| | | | |      26e9461: 00 00 00 00 00 00 00 00 00 00 00 00 00 00 00 00 [................]
| | | | |      26e9471: 00 00 00 00 00 00 00 00 00 00 00 00 00 00 00 00 [................]
| | | | |      26e9481: 00 00 00 00 00 00 00 00 00 00 00 00 00 00 00 00 [................]
| | | | |      26e9491: 00 00 00 00 00 00 00 00 00 00 00 00 00 00 00 00 [................]
| | | | |         [snip 206 bytes]
| | | | | 10) AFAreaXPositions = 703 0 0 0 0 0 0 0 0 0 0 0 0 0 0 0 0 0 0 0 0 0 0 0 0 0 [snip]
| | | | |     - Tag 0x000a (286 bytes, int16s[143]):
| | | | |      26e956f: bf 02 00 00 00 00 00 00 00 00 00 00 00 00 00 00 [................]
| | | | |      26e957f: 00 00 00 00 00 00 00 00 00 00 00 00 00 00 00 00 [................]
| | | | |      26e958f: 00 00 00 00 00 00 00 00 00 00 00 00 00 00 00 00 [................]
| | | | |      26e959f: 00 00 00 00 00 00 00 00 00 00 00 00 00 00 00 00 [................]
| | | | |      26e95af: 00 00 00 00 00 00 00 00 00 00 00 00 00 00 00 00 [................]
| | | | |         [snip 206 bytes]
| | | | | 11) AFAreaYPositions = 703 0 0 0 0 0 0 0 0 0 0 0 0 0 0 0 0 0 0 0 0 0 0 0 0 0 [snip]
| | | | |     - Tag 0x000b (286 bytes, int16s[143]):
| | | | |      26e968d: bf 02 00 00 00 00 00 00 00 00 00 00 00 00 00 00 [................]
| | | | |      26e969d: 00 00 00 00 00 00 00 00 00 00 00 00 00 00 00 00 [................]
| | | | |      26e96ad: 00 00 00 00 00 00 00 00 00 00 00 00 00 00 00 00 [................]
| | | | |      26e96bd: 00 00 00 00 00 00 00 00 00 00 00 00 00 00 00 00 [................]
| | | | |      26e96cd: 00 00 00 00 00 00 00 00 00 00 00 00 00 00 00 00 [................]
| | | | |         [snip 206 bytes]
| | | | | 12) AFPointsInFocus = 1 0 0 0 0 0 0 0 0
| | | | |     - Tag 0x000c (18 bytes, int16s[9]):
| | | | |      26e97ab: 01 00 00 00 00 00 00 00 00 00 00 00 00 00 00 00 [................]
| | | | |      26e97bb: 00 00                                           [..]
| | | | | 13) AFPointsSelected = 1 0 0 0 0 0 0 0 0
| | | | |     - Tag 0x000d (18 bytes, int16s[9]):
| | | | |      26e97bd: 01 00 00 00 00 00 00 00 00 00 00 00 00 00 00 00 [................]
| | | | |      26e97cd: 00 00                                           [..]
| | | | 3)  CanonFileInfo (SubDirectory) -->
| | | |     - Tag 0x0093 (132 bytes, int16u[66] read as undef[132]):
| | | |      26e97e3: 84 00 00 00 00 00 00 00 00 00 00 00 00 00 00 00 [................]
| | | |      26e97f3: ff ff 00 00 00 00 00 00 00 00 00 00 ff ff ff ff [................]
| | | |      26e9803: 5e 00 ff ff 01 00 01 00 96 00 88 00 00 00 01 00 [^...............]
| | | |      26e9813: 00 00 00 00 ff ff 00 00 09 00 3f 00 0a 00 1f 00 [..........?.....]
| | | |      26e9823: 00 00 a4 00 00 00 00 00 00 00 00 00 00 00 00 00 [................]
| | | |         [snip 52 bytes]
| | | | + [BinaryData directory, 132 bytes]
| | | | | BracketMode = 0
| | | | | - Tag 0x0003 (2 bytes, int16s[1]):
| | | | |  26e97e9: 00 00                                           [..]
| | | | | BracketValue = 0
| | | | | - Tag 0x0004 (2 bytes, int16s[1]):
| | | | |  26e97eb: 00 00                                           [..]
| | | | | BracketShotNumber = 0
| | | | | - Tag 0x0005 (2 bytes, int16s[1]):
| | | | |  26e97ed: 00 00                                           [..]
| | | | | RawJpgQuality = 0
| | | | | - Tag 0x0006 (2 bytes, int16s[1]):
| | | | |  26e97ef: 00 00                                           [..]
| | | | | RawJpgSize = 0
| | | | | - Tag 0x0007 (2 bytes, int16s[1]):
| | | | |  26e97f1: 00 00                                           [..]
| | | | | LongExposureNoiseReduction2 = -1
| | | | | - Tag 0x0008 (2 bytes, int16s[1]):
| | | | |  26e97f3: ff ff                                           [..]
| | | | | WBBracketMode = 0
| | | | | - Tag 0x0009 (2 bytes, int16s[1]):
| | | | |  26e97f5: 00 00                                           [..]
| | | | | WBBracketValueAB = 0
| | | | | - Tag 0x000c (2 bytes, int16s[1]):
| | | | |  26e97fb: 00 00                                           [..]
| | | | | WBBracketValueGM = 0
| | | | | - Tag 0x000d (2 bytes, int16s[1]):
| | | | |  26e97fd: 00 00                                           [..]
| | | | | FilterEffect = -1
| | | | | - Tag 0x000e (2 bytes, int16s[1]):
| | | | |  26e97ff: ff ff                                           [..]
| | | | | ToningEffect = -1
| | | | | - Tag 0x000f (2 bytes, int16s[1]):
| | | | |  26e9801: ff ff                                           [..]
| | | | | LiveViewShooting = 1
| | | | | - Tag 0x0013 (2 bytes, int16s[1]):
| | | | |  26e9809: 01 00                                           [..]
| | | | | FocusDistanceUpper = 150
| | | | | - Tag 0x0014 (2 bytes, int16u[1]):
| | | | |  26e980b: 96 00                                           [..]
| | | | | FocusDistanceLower = 136
| | | | | - Tag 0x0015 (2 bytes, int16u[1]):
| | | | |  26e980d: 88 00                                           [..]
| | | | | FlashExposureLock = 0
| | | | | - Tag 0x0019 (2 bytes, int16s[1]):
| | | | |  26e9815: 00 00                                           [..]
| | | | 4)  ProcessingInfo (SubDirectory) -->
| | | |     - Tag 0x00a0 (36 bytes, int16u[18] read as undef[36]):
| | | |      26e9867: 24 00 00 00 04 00 00 00 00 00 00 00 00 00 00 00 [$...............]
| | | |      26e9877: ff ff 50 14 87 00 00 00 00 00 00 00 02 00 04 00 [..P.............]
| | | |      26e9887: 00 00 ff ff                                     [....]
| | | | + [BinaryData directory, 36 bytes]
| | | | | ToneCurve = 0
| | | | | - Tag 0x0001 (2 bytes, int16s[1]):
| | | | |  26e9869: 00 00                                           [..]
| | | | | Sharpness = 4
| | | | | - Tag 0x0002 (2 bytes, int16s[1]):
| | | | |  26e986b: 04 00                                           [..]
| | | | | SharpnessFrequency = 0
| | | | | - Tag 0x0003 (2 bytes, int16s[1]):
| | | | |  26e986d: 00 00                                           [..]
| | | | | SensorRedLevel = 0
| | | | | - Tag 0x0004 (2 bytes, int16s[1]):
| | | | |  26e986f: 00 00                                           [..]
| | | | | SensorBlueLevel = 0
| | | | | - Tag 0x0005 (2 bytes, int16s[1]):
| | | | |  26e9871: 00 00                                           [..]
| | | | | WhiteBalanceRed = 0
| | | | | - Tag 0x0006 (2 bytes, int16s[1]):
| | | | |  26e9873: 00 00                                           [..]
| | | | | WhiteBalanceBlue = 0
| | | | | - Tag 0x0007 (2 bytes, int16s[1]):
| | | | |  26e9875: 00 00                                           [..]
| | | | | WhiteBalance = -1
| | | | | - Tag 0x0008 (2 bytes, int16s[1]):
| | | | |  26e9877: ff ff                                           [..]
| | | | | ColorTemperature = 5200
| | | | | - Tag 0x0009 (2 bytes, int16s[1]):
| | | | |  26e9879: 50 14                                           [P.]
| | | | | PictureStyle = 135
| | | | | - Tag 0x000a (2 bytes, int16s[1]):
| | | | |  26e987b: 87 00                                           [..]
| | | | | DigitalGain = 0
| | | | | - Tag 0x000b (2 bytes, int16s[1]):
| | | | |  26e987d: 00 00                                           [..]
| | | | | WBShiftAB = 0
| | | | | - Tag 0x000c (2 bytes, int16s[1]):
| | | | |  26e987f: 00 00                                           [..]
| | | | | WBShiftGM = 0
| | | | | - Tag 0x000d (2 bytes, int16s[1]):
| | | | |  26e9881: 00 00                                           [..]
| | | | 5)  VignettingCorr2 (SubDirectory) -->
| | | |     - Tag 0x4016 (40 bytes, int32u[10] read as undef[40]):
| | | |      26e988b: 28 00 00 00 00 00 00 00 01 00 00 00 00 00 00 00 [(...............]
| | | |      26e989b: 01 00 00 00 01 00 00 00 01 00 00 00 00 00 00 00 [................]
| | | |      26e98ab: 01 00 00 00 00 00 00 00                         [........]
| | | | + [BinaryData directory, 40 bytes]
| | | | | PeripheralLightingSetting = 1
| | | | | - Tag 0x0005 (4 bytes, int32s[1]):
| | | | |  26e989f: 01 00 00 00                                     [....]
| | | | | ChromaticAberrationSetting = 1
| | | | | - Tag 0x0006 (4 bytes, int32s[1]):
| | | | |  26e98a3: 01 00 00 00                                     [....]
+ [CTMD type 8 directory, 37706 bytes]
| TimedExif8 (SubDirectory) -->
| - Tag 0x0008 (37706 bytes):
|  26e98bf: 4a 93 00 00 7c 92 00 00 49 49 2a 00 08 00 00 00 [J...|...II*.....]
|  26e98cf: 03 00 01 40 03 00 1c 07 00 00 2e 00 00 00 05 40 [...@...........@]
|  26e98df: 07 00 dc 7e 00 00 66 0e 00 00 0d 00 07 00 00 06 [...~..f.........]
|  26e98ef: 00 00 42 8d 00 00 10 00 77 04 00 04 00 04 f7 01 [..B.....w.......]
|  26e98ff: 9f 02 00 04 00 04 ea 02 50 02 00 04 00 04 d4 04 [........P.......]
|     [snip 37626 bytes]
| + [TimedExif directory, 37706 bytes]
| | MakerNoteCanon (SubDirectory) -->
| | - Tag 0x927c (37698 bytes):
| |  26e98c7: 49 49 2a 00 08 00 00 00 03 00 01 40 03 00 1c 07 [II*........@....]
| |  26e98d7: 00 00 2e 00 00 00 05 40 07 00 dc 7e 00 00 66 0e [.......@...~..f.]
| |  26e98e7: 00 00 0d 00 07 00 00 06 00 00 42 8d 00 00 10 00 [..........B.....]
| |  26e98f7: 77 04 00 04 00 04 f7 01 9f 02 00 04 00 04 ea 02 [w...............]
| |  26e9907: 50 02 00 04 00 04 d4 04 7e 04 00 04 00 04 06 02 [P.......~.......]
| |     [snip 37618 bytes]
| | + [TIFF directory]
| | | + [Canon directory with 3 entries]
| | | | 0)  ColorData9 (SubDirectory) -->
| | | |     - Tag 0x4001 (3640 bytes, int16u[1820] read as undef[3640]):
| | | |      26e98f5: 10 00 77 04 00 04 00 04 f7 01 9f 02 00 04 00 04 [..w.............]
| | | |      26e9905: ea 02 50 02 00 04 00 04 d4 04 7e 04 00 04 00 04 [..P.......~.....]
| | | |      26e9915: 06 02 a6 02 00 04 00 04 f9 02 58 02 00 04 00 04 [..........X.....]
| | | |      26e9925: ed 04 00 00 00 00 00 01 00 01 00 01 00 00 02 00 [................]
| | | |      26e9935: 04 00 02 00 04 00 00 00 00 00 00 00 00 00 00 00 [................]
| | | |         [snip 3560 bytes]
| | | | + [BinaryData directory, 3640 bytes]
| | | | | ColorDataVersion = 16
| | | | | - Tag 0x0000 (2 bytes, int16s[1]):
| | | | |  26e98f5: 10 00                                           [..]
| | | | | WB_RGGBLevelsAsShot = 1081 1024 1024 1827
| | | | | - Tag 0x0047 (8 bytes, int16s[4]):
| | | | |  26e9983: 39 04 00 04 00 04 23 07                         [9.....#.]
| | | | | ColorTempAsShot = 3200
| | | | | - Tag 0x004b (2 bytes, int16s[1]):
| | | | |  26e998b: 80 0c                                           [..]
| | | | | WB_RGGBLevelsAuto = 1081 1024 1024 1827
| | | | | - Tag 0x004c (8 bytes, int16s[4]):
| | | | |  26e998d: 39 04 00 04 00 04 23 07                         [9.....#.]
| | | | | ColorTempAuto = 3200
| | | | | - Tag 0x0050 (2 bytes, int16s[1]):
| | | | |  26e9995: 80 0c                                           [..]
| | | | | WB_RGGBLevelsMeasured = 1081 1024 1024 1827
| | | | | - Tag 0x0051 (8 bytes, int16s[4]):
| | | | |  26e9997: 39 04 00 04 00 04 23 07                         [9.....#.]
| | | | | ColorTempMeasured = 3200
| | | | | - Tag 0x0055 (2 bytes, int16s[1]):
| | | | |  26e999f: 80 0c                                           [..]
| | | | | WB_RGGBLevelsDaylight = 1549 1024 1024 1316
| | | | | - Tag 0x0088 (8 bytes, int16s[4]):
| | | | |  26e9a05: 0d 06 00 04 00 04 24 05                         [......$.]
| | | | | ColorTempDaylight = 5200
| | | | | - Tag 0x008c (2 bytes, int16s[1]):
| | | | |  26e9a0d: 50 14                                           [P.]
| | | | | WB_RGGBLevelsShade = 1792 1024 1024 1147
| | | | | - Tag 0x008d (8 bytes, int16s[4]):
| | | | |  26e9a0f: 00 07 00 04 00 04 7b 04                         [......{.]
| | | | | ColorTempShade = 7000
| | | | | - Tag 0x0091 (2 bytes, int16s[1]):
| | | | |  26e9a17: 58 1b                                           [X.]
| | | | | WB_RGGBLevelsCloudy = 1670 1024 1024 1229
| | | | | - Tag 0x0092 (8 bytes, int16s[4]):
| | | | |  26e9a19: 86 06 00 04 00 04 cd 04                         [........]
| | | | | ColorTempCloudy = 6000
| | | | | - Tag 0x0096 (2 bytes, int16s[1]):
| | | | |  26e9a21: 70 17                                           [p.]
| | | | | WB_RGGBLevelsTungsten = 1104 1024 1024 1879
| | | | | - Tag 0x0097 (8 bytes, int16s[4]):
| | | | |  26e9a23: 50 04 00 04 00 04 57 07                         [P.....W.]
| | | | | ColorTempTungsten = 3200
| | | | | - Tag 0x009b (2 bytes, int16s[1]):
| | | | |  26e9a2b: 80 0c                                           [..]
| | | | | WB_RGGBLevelsFluorescent = 1303 1024 1024 1771
| | | | | - Tag 0x009c (8 bytes, int16s[4]):
| | | | |  26e9a2d: 17 05 00 04 00 04 eb 06                         [........]
| | | | | ColorTempFluorescent = 3687
| | | | | - Tag 0x00a0 (2 bytes, int16s[1]):
| | | | |  26e9a35: 67 0e                                           [g.]
| | | | | WB_RGGBLevelsKelvin = 1549 1024 1024 1316
| | | | | - Tag 0x00a1 (8 bytes, int16s[4]):
| | | | |  26e9a37: 0d 06 00 04 00 04 24 05                         [......$.]
| | | | | ColorTempKelvin = 5200
| | | | | - Tag 0x00a5 (2 bytes, int16s[1]):
| | | | |  26e9a3f: 50 14                                           [P.]
| | | | | WB_RGGBLevelsFlash = 1697 1024 1024 1218
| | | | | - Tag 0x00a6 (8 bytes, int16s[4]):
| | | | |  26e9a41: a1 06 00 04 00 04 c2 04                         [........]
| | | | | ColorTempFlash = 6166
| | | | | - Tag 0x00aa (2 bytes, int16s[1]):
| | | | |  26e9a49: 16 18                                           [..]
| | | | | PerChannelBlackLevel = 2048 2047 2047 2048
| | | | | - Tag 0x0149 (8 bytes, int16u[4]):
| | | | |  26e9b87: 00 08 ff 07 ff 07 00 08                         [........]
| | | | | NormalWhiteLevel = 13035
| | | | | - Tag 0x031c (2 bytes, int16u[1]):
| | | | |  26e9f2d: eb 32                                           [.2]
| | | | | SpecularWhiteLevel = 14338
| | | | | - Tag 0x031d (2 bytes, int16u[1]):
| | | | |  26e9f2f: 02 38                                           [.8]
| | | | | LinearityUpperMargin = 10000
| | | | | - Tag 0x031e (2 bytes, int16u[1]):
| | | | |  26e9f31: 10 27                                           [.']
| | | | 1)  Flavor = .~. .?_...........?_...........?_...........?_...........?_.......[snip]
| | | |     - Tag 0x4005 (32476 bytes, undef[32476]):
| | | |      26ea72d: dc 7e 00 00 0b 00 00 20 00 00 00 00 00 00 00 00 [.~..... ........]
| | | |      26ea73d: 00 00 00 00 00 00 00 00 00 00 00 00 00 00 00 00 [................]
| | | |      26ea74d: 00 00 00 00 00 00 00 00 00 00 00 00 00 00 00 00 [................]
| | | |      26ea75d: 00 00 00 00 00 00 00 00 00 00 00 00 00 00 00 00 [................]
| | | |      26ea76d: 00 00 00 00 00 00 00 00 00 00 00 00 00 00 00 00 [................]
| | | |         [snip 32396 bytes]
| | | | 2)  CanonCameraInfoUnknown (SubDirectory) -->
| | | |     - Tag 0x000d (1536 bytes, undef[1536]):
| | | |      26f2609: aa aa 68 12 60 0f 00 25 00 12 00 0f c8 fc 58 00 [..h.`..%......X.]
| | | |      26f2619: 00 00 00 00 00 00 01 00 00 00 00 00 00 00 00 00 [................]
| | | |      26f2629: 00 00 00 00 00 00 00 00 00 00 00 00 00 00 00 00 [................]
| | | |      26f2639: 00 00 01 00 00 00 00 00 00 00 00 00 00 00 00 00 [................]
| | | |      26f2649: 00 00 00 00 00 00 00 00 00 00 00 a8 9a 00 00 00 [................]
| | | |         [snip 1456 bytes]
| | | | + [BinaryData directory, 1536 bytes]
+ [CTMD type 9 directory, 1480 bytes]
| TimedExif9 (SubDirectory) -->
| - Tag 0x0009 (1480 bytes):
|  26f2c15: c8 05 00 00 7c 92 00 00 49 49 2a 00 08 00 00 00 [....|...II*.....]
|  26f2c25: 03 00 15 40 07 00 78 02 00 00 2e 00 00 00 33 40 [...@..x.......3@]
|  26f2c35: 07 00 f8 01 00 00 a6 02 00 00 2e 40 07 00 22 01 [...........@..".]
|  26f2c45: 00 00 9e 04 00 00 20 30 78 02 01 00 00 00 01 00 [...... 0x.......]
|  26f2c55: 01 00 01 00 00 00 14 00 00 00 64 00 64 00 66 04 [..........d.d.f.]
|     [snip 1400 bytes]
| + [TimedExif directory, 1480 bytes]
| | MakerNoteCanon (SubDirectory) -->
| | - Tag 0x927c (1472 bytes):
| |  26f2c1d: 49 49 2a 00 08 00 00 00 03 00 15 40 07 00 78 02 [II*........@..x.]
| |  26f2c2d: 00 00 2e 00 00 00 33 40 07 00 f8 01 00 00 a6 02 [......3@........]
| |  26f2c3d: 00 00 2e 40 07 00 22 01 00 00 9e 04 00 00 20 30 [...@.."....... 0]
| |  26f2c4d: 78 02 01 00 00 00 01 00 01 00 01 00 00 00 14 00 [x...............]
| |  26f2c5d: 00 00 64 00 64 00 66 04 80 00 00 00 00 00 88 0e [..d.d.f.........]
| |     [snip 1392 bytes]
| | + [TIFF directory]
| | | + [Canon directory with 3 entries]
| | | | 0)  VignettingCorrUnknown1 (SubDirectory) -->
| | | |     - Tag 0x4015 (632 bytes, undef[632]):
| | | |      26f2c4b: 20 30 78 02 01 00 00 00 01 00 01 00 01 00 00 00 [ 0x.............]
| | | |      26f2c5b: 14 00 00 00 64 00 64 00 66 04 80 00 00 00 00 00 [....d.d.f.......]
| | | |      26f2c6b: 88 0e 70 17 a0 0f 00 00 00 00 00 00 00 00 00 00 [..p.............]
| | | |      26f2c7b: 00 00 00 00 00 00 00 00 00 00 00 00 00 00 00 00 [................]
| | | |      26f2c8b: 00 00 00 00 00 00 00 00 00 00 00 00 00 00 00 00 [................]
| | | |         [snip 552 bytes]
| | | | + [BinaryData directory, 632 bytes]
| | | | | VignettingCorrVersion = 32
| | | | | - Tag 0x0000 (1 bytes, int8u[1]):
| | | | |  26f2c4b: 20                                              [ ]
| | | | 1)  Canon_0x4033 = 
| | | |     - Tag 0x4033 (504 bytes, undef[504]):
| | | |      26f2ec3: 00 00 00 00 00 00 00 00 00 00 00 00 00 00 00 00 [................]
| | | |      26f2ed3: 00 00 00 00 00 00 00 00 00 00 00 00 00 00 00 00 [................]
| | | |      26f2ee3: 00 00 00 00 00 00 00 00 00 00 00 00 00 00 00 00 [................]
| | | |      26f2ef3: 00 00 00 00 00 00 00 00 00 00 00 00 00 00 00 00 [................]
| | | |      26f2f03: 00 00 00 00 00 00 00 00 00 00 00 00 00 00 00 00 [................]
| | | |         [snip 424 bytes]
| | | | 2)  Canon_0x402e = ."............?.........?....x.o...\..-....................D[snip]
| | | |     - Tag 0x402e (290 bytes, undef[290]):
| | | |      26f30bb: 00 10 22 01 00 00 00 00 00 00 ff ff ff ff ff ff [..".............]
| | | |      26f30cb: fc ff 9b ff ff 3f 00 00 00 00 00 00 00 00 ff ff [.....?..........]
| | | |      26f30db: ff ff f7 ff 14 ff fd 3f 00 00 c3 ff 93 ff 78 ff [.......?......x.]
| | | |      26f30eb: 6f ff 82 ff 5c 03 1e 2d 8f 00 00 00 14 00 1d 00 [o...\..-........]
| | | |      26f30fb: 05 00 b6 ff 89 fe a3 f6 c2 d3 b7 fe 00 00 07 ff [................]
| | | |         [snip 210 bytes]
--------------------------
  XMP (SubDirectory) -->
  - Tag 'uuid' (65552 bytes):
      6ed0: be 7a cf cb 97 a9 42 e8 9c 71 99 94 91 e3 af ac [.z....B..q......]
      6ee0: 3c 3f 78 70 61 63 6b 65 74 20 62 65 67 69 6e 3d [<?xpacket begin=]
      6ef0: 27 ef bb bf 27 20 69 64 3d 27 57 35 4d 30 4d 70 ['...' id='W5M0Mp]
      6f00: 43 65 68 69 48 7a 72 65 53 7a 4e 54 63 7a 6b 63 [CehiHzreSzNTczkc]
      6f10: 39 64 27 3f 3e 3c 78 3a 78 6d 70 6d 65 74 61 20 [9d'?><x:xmpmeta ]
      [snip 65472 bytes]
  + [XMP directory, 65536 bytes]
  | Rating = 0
  | - Tag 'x:xmpmeta/rdf:RDF/rdf:Description/xmp:Rating'
  PreviewImage = ..+^..K.....@nM....iPRVW..T.8...Q.....................................[snip]
  - Tag 'uuid' (379009 bytes):
     16ee8: ea f4 2b 5e 1c 98 4b 88 b9 fb b7 dc 40 6e 4d 16 [..+^..K.....@nM.]
     16ef8: 00 00 00 00 00 00 00 01 00 05 c8 69 50 52 56 57 [...........iPRVW]
     16f08: 00 00 00 00 00 01 06 54 04 38 00 01 00 05 c8 51 [.......T.8.....Q]
     16f18: ff d8 ff db 00 84 00 03 02 02 03 02 02 03 03 02 [................]
     16f28: 03 03 03 03 04 05 08 05 05 04 04 05 09 07 07 06 [................]
      [snip 378929 bytes]
  MovieDataSize = 40368744
  MovieDataOffset = 472953
  MovieData
  - Tag 'mdat' at offset 0x73779 (40368744 bytes)
